ARM GAS  C:\Users\25339\AppData\Local\Temp\cclbzSdf.s 			page 1


   1              		.cpu cortex-m3
   2              		.eabi_attribute 20, 1
   3              		.eabi_attribute 21, 1
   4              		.eabi_attribute 23, 3
   5              		.eabi_attribute 24, 1
   6              		.eabi_attribute 25, 1
   7              		.eabi_attribute 26, 1
   8              		.eabi_attribute 30, 1
   9              		.eabi_attribute 34, 1
  10              		.eabi_attribute 18, 4
  11              		.file	"display.c"
  12              		.text
  13              	.Ltext0:
  14              		.cfi_sections	.debug_frame
  15              		.section	.rodata.display_time.str1.4,"aMS",%progbits,1
  16              		.align	2
  17              	.LC0:
  18 0000 2E00     		.ascii	".\000"
  19 0002 0000     		.align	2
  20              	.LC1:
  21 0004 3A00     		.ascii	":\000"
  22              		.section	.text.display_time,"ax",%progbits
  23              		.align	1
  24              		.global	display_time
  25              		.arch armv7-m
  26              		.syntax unified
  27              		.thumb
  28              		.thumb_func
  29              		.fpu softvfp
  31              	display_time:
  32              	.LFB65:
  33              		.file 1 "Src/display.c"
   1:Src/display.c **** #include "display.h"
   2:Src/display.c **** #include "rtc.h"
   3:Src/display.c **** 
   4:Src/display.c **** char display_array[256] = {0};
   5:Src/display.c **** void display_time(void)
   6:Src/display.c **** {
  34              		.loc 1 6 1 view -0
  35              		.cfi_startproc
  36              		@ args = 0, pretend = 0, frame = 0
  37              		@ frame_needed = 0, uses_anonymous_args = 0
  38 0000 F8B5     		push	{r3, r4, r5, r6, r7, lr}
  39              	.LCFI0:
  40              		.cfi_def_cfa_offset 24
  41              		.cfi_offset 3, -24
  42              		.cfi_offset 4, -20
  43              		.cfi_offset 5, -16
  44              		.cfi_offset 6, -12
  45              		.cfi_offset 7, -8
  46              		.cfi_offset 14, -4
   7:Src/display.c ****     /*显示日期*/
   8:Src/display.c ****     display_array[0] = getdate.Year / 1000 + 0x30;
  47              		.loc 1 8 5 view .LVU1
  48              		.loc 1 8 31 is_stmt 0 view .LVU2
  49 0002 544E     		ldr	r6, .L3
  50 0004 F178     		ldrb	r1, [r6, #3]	@ zero_extendqisi2
ARM GAS  C:\Users\25339\AppData\Local\Temp\cclbzSdf.s 			page 2


  51              		.loc 1 8 22 view .LVU3
  52 0006 544C     		ldr	r4, .L3+4
  53 0008 3023     		movs	r3, #48
  54 000a 2370     		strb	r3, [r4]
   9:Src/display.c ****     display_array[1] = getdate.Year / 100 % 10 + 0x30;
  55              		.loc 1 9 5 is_stmt 1 view .LVU4
  56              		.loc 1 9 48 is_stmt 0 view .LVU5
  57 000c 534B     		ldr	r3, .L3+8
  58 000e A3FB0102 		umull	r0, r2, r3, r1
  59 0012 C2F34712 		ubfx	r2, r2, #5, #8
  60 0016 524D     		ldr	r5, .L3+12
  61 0018 A5FB0270 		umull	r7, r0, r5, r2
  62 001c C008     		lsrs	r0, r0, #3
  63 001e 00EB8000 		add	r0, r0, r0, lsl #2
  64 0022 4700     		lsls	r7, r0, #1
  65 0024 D21B     		subs	r2, r2, r7
  66 0026 3032     		adds	r2, r2, #48
  67              		.loc 1 9 22 view .LVU6
  68 0028 6270     		strb	r2, [r4, #1]
  10:Src/display.c ****     display_array[2] = getdate.Year / 10 % 100 + 0x30;
  69              		.loc 1 10 5 is_stmt 1 view .LVU7
  70              		.loc 1 10 48 is_stmt 0 view .LVU8
  71 002a A5FB0120 		umull	r2, r0, r5, r1
  72 002e C208     		lsrs	r2, r0, #3
  73 0030 C0F3C700 		ubfx	r0, r0, #3, #8
  74 0034 A3FB0073 		umull	r7, r3, r3, r0
  75 0038 5B09     		lsrs	r3, r3, #5
  76 003a 6427     		movs	r7, #100
  77 003c 07FB1303 		mls	r3, r7, r3, r0
  78 0040 3033     		adds	r3, r3, #48
  79              		.loc 1 10 22 view .LVU9
  80 0042 A370     		strb	r3, [r4, #2]
  11:Src/display.c ****     display_array[3] = getdate.Year % 10 + 0x30;
  81              		.loc 1 11 5 is_stmt 1 view .LVU10
  82              		.loc 1 11 42 is_stmt 0 view .LVU11
  83 0044 02EB8203 		add	r3, r2, r2, lsl #2
  84 0048 5A00     		lsls	r2, r3, #1
  85 004a 891A     		subs	r1, r1, r2
  86 004c 3031     		adds	r1, r1, #48
  87              		.loc 1 11 22 view .LVU12
  88 004e E170     		strb	r1, [r4, #3]
  12:Src/display.c ****     show_string_atype(0, 0, display_array, 4);
  89              		.loc 1 12 5 is_stmt 1 view .LVU13
  90 0050 0423     		movs	r3, #4
  91 0052 2246     		mov	r2, r4
  92 0054 0021     		movs	r1, #0
  93 0056 0846     		mov	r0, r1
  94 0058 FFF7FEFF 		bl	show_string_atype
  95              	.LVL0:
  13:Src/display.c ****     show_string_atype(0, 4, ".", 1);
  96              		.loc 1 13 5 view .LVU14
  97 005c 414F     		ldr	r7, .L3+16
  98 005e 0123     		movs	r3, #1
  99 0060 3A46     		mov	r2, r7
 100 0062 0421     		movs	r1, #4
 101 0064 0020     		movs	r0, #0
 102 0066 FFF7FEFF 		bl	show_string_atype
ARM GAS  C:\Users\25339\AppData\Local\Temp\cclbzSdf.s 			page 3


 103              	.LVL1:
  14:Src/display.c ****     display_array[0] = getdate.Month / 10 + 0x30;
 104              		.loc 1 14 5 view .LVU15
 105              		.loc 1 14 31 is_stmt 0 view .LVU16
 106 006a 7278     		ldrb	r2, [r6, #1]	@ zero_extendqisi2
 107              		.loc 1 14 43 view .LVU17
 108 006c A5FB0213 		umull	r1, r3, r5, r2
 109 0070 DB08     		lsrs	r3, r3, #3
 110 0072 03F13001 		add	r1, r3, #48
 111              		.loc 1 14 22 view .LVU18
 112 0076 2170     		strb	r1, [r4]
  15:Src/display.c ****     display_array[1] = getdate.Month % 10 + 0x30;
 113              		.loc 1 15 5 is_stmt 1 view .LVU19
 114              		.loc 1 15 43 is_stmt 0 view .LVU20
 115 0078 03EB8303 		add	r3, r3, r3, lsl #2
 116 007c 5900     		lsls	r1, r3, #1
 117 007e 521A     		subs	r2, r2, r1
 118 0080 3032     		adds	r2, r2, #48
 119              		.loc 1 15 22 view .LVU21
 120 0082 6270     		strb	r2, [r4, #1]
  16:Src/display.c ****     show_string_atype(0, 5, display_array, 2);
 121              		.loc 1 16 5 is_stmt 1 view .LVU22
 122 0084 0223     		movs	r3, #2
 123 0086 2246     		mov	r2, r4
 124 0088 0521     		movs	r1, #5
 125 008a 0020     		movs	r0, #0
 126 008c FFF7FEFF 		bl	show_string_atype
 127              	.LVL2:
  17:Src/display.c ****     show_string_atype(0, 7, ".", 1);
 128              		.loc 1 17 5 view .LVU23
 129 0090 0123     		movs	r3, #1
 130 0092 3A46     		mov	r2, r7
 131 0094 0721     		movs	r1, #7
 132 0096 0020     		movs	r0, #0
 133 0098 FFF7FEFF 		bl	show_string_atype
 134              	.LVL3:
  18:Src/display.c ****     display_array[0] = getdate.Date / 10 + 0x30;
 135              		.loc 1 18 5 view .LVU24
 136              		.loc 1 18 31 is_stmt 0 view .LVU25
 137 009c B278     		ldrb	r2, [r6, #2]	@ zero_extendqisi2
 138              		.loc 1 18 42 view .LVU26
 139 009e A5FB0213 		umull	r1, r3, r5, r2
 140 00a2 DB08     		lsrs	r3, r3, #3
 141 00a4 03F13001 		add	r1, r3, #48
 142              		.loc 1 18 22 view .LVU27
 143 00a8 2170     		strb	r1, [r4]
  19:Src/display.c ****     display_array[1] = getdate.Date % 10 + 0x30;
 144              		.loc 1 19 5 is_stmt 1 view .LVU28
 145              		.loc 1 19 42 is_stmt 0 view .LVU29
 146 00aa 03EB8303 		add	r3, r3, r3, lsl #2
 147 00ae 5900     		lsls	r1, r3, #1
 148 00b0 521A     		subs	r2, r2, r1
 149 00b2 3032     		adds	r2, r2, #48
 150              		.loc 1 19 22 view .LVU30
 151 00b4 6270     		strb	r2, [r4, #1]
  20:Src/display.c ****     show_string_atype(0, 8, display_array, 2);
 152              		.loc 1 20 5 is_stmt 1 view .LVU31
ARM GAS  C:\Users\25339\AppData\Local\Temp\cclbzSdf.s 			page 4


 153 00b6 0223     		movs	r3, #2
 154 00b8 2246     		mov	r2, r4
 155 00ba 0821     		movs	r1, #8
 156 00bc 0020     		movs	r0, #0
 157 00be FFF7FEFF 		bl	show_string_atype
 158              	.LVL4:
  21:Src/display.c ****     /*显示时间*/
  22:Src/display.c ****     display_array[0] = gettime.Hours / 10 + 0x30;
 159              		.loc 1 22 5 view .LVU32
 160              		.loc 1 22 31 is_stmt 0 view .LVU33
 161 00c2 294E     		ldr	r6, .L3+20
 162 00c4 3278     		ldrb	r2, [r6]	@ zero_extendqisi2
 163              		.loc 1 22 43 view .LVU34
 164 00c6 A5FB0213 		umull	r1, r3, r5, r2
 165 00ca DB08     		lsrs	r3, r3, #3
 166 00cc 03F13001 		add	r1, r3, #48
 167              		.loc 1 22 22 view .LVU35
 168 00d0 2170     		strb	r1, [r4]
  23:Src/display.c ****     display_array[1] = gettime.Hours % 10 + 0x30;
 169              		.loc 1 23 5 is_stmt 1 view .LVU36
 170              		.loc 1 23 43 is_stmt 0 view .LVU37
 171 00d2 03EB8303 		add	r3, r3, r3, lsl #2
 172 00d6 5900     		lsls	r1, r3, #1
 173 00d8 521A     		subs	r2, r2, r1
 174 00da 3032     		adds	r2, r2, #48
 175              		.loc 1 23 22 view .LVU38
 176 00dc 6270     		strb	r2, [r4, #1]
  24:Src/display.c ****     show_string_atype(2, 0, display_array, 2);
 177              		.loc 1 24 5 is_stmt 1 view .LVU39
 178 00de 0223     		movs	r3, #2
 179 00e0 2246     		mov	r2, r4
 180 00e2 0021     		movs	r1, #0
 181 00e4 1846     		mov	r0, r3
 182 00e6 FFF7FEFF 		bl	show_string_atype
 183              	.LVL5:
  25:Src/display.c ****     show_string_atype(2, 2, ":", 1);
 184              		.loc 1 25 5 view .LVU40
 185 00ea 204F     		ldr	r7, .L3+24
 186 00ec 0123     		movs	r3, #1
 187 00ee 3A46     		mov	r2, r7
 188 00f0 0221     		movs	r1, #2
 189 00f2 0846     		mov	r0, r1
 190 00f4 FFF7FEFF 		bl	show_string_atype
 191              	.LVL6:
  26:Src/display.c ****     display_array[0] = gettime.Minutes / 10 + 0x30;
 192              		.loc 1 26 5 view .LVU41
 193              		.loc 1 26 31 is_stmt 0 view .LVU42
 194 00f8 7278     		ldrb	r2, [r6, #1]	@ zero_extendqisi2
 195              		.loc 1 26 45 view .LVU43
 196 00fa A5FB0213 		umull	r1, r3, r5, r2
 197 00fe DB08     		lsrs	r3, r3, #3
 198 0100 03F13001 		add	r1, r3, #48
 199              		.loc 1 26 22 view .LVU44
 200 0104 2170     		strb	r1, [r4]
  27:Src/display.c ****     display_array[1] = gettime.Minutes % 10 + 0x30;
 201              		.loc 1 27 5 is_stmt 1 view .LVU45
 202              		.loc 1 27 45 is_stmt 0 view .LVU46
ARM GAS  C:\Users\25339\AppData\Local\Temp\cclbzSdf.s 			page 5


 203 0106 03EB8303 		add	r3, r3, r3, lsl #2
 204 010a 5900     		lsls	r1, r3, #1
 205 010c 521A     		subs	r2, r2, r1
 206 010e 3032     		adds	r2, r2, #48
 207              		.loc 1 27 22 view .LVU47
 208 0110 6270     		strb	r2, [r4, #1]
  28:Src/display.c ****     show_string_atype(2, 3, display_array, 2);
 209              		.loc 1 28 5 is_stmt 1 view .LVU48
 210 0112 0223     		movs	r3, #2
 211 0114 2246     		mov	r2, r4
 212 0116 0321     		movs	r1, #3
 213 0118 1846     		mov	r0, r3
 214 011a FFF7FEFF 		bl	show_string_atype
 215              	.LVL7:
  29:Src/display.c ****     show_string_atype(2, 5, ":", 1);
 216              		.loc 1 29 5 view .LVU49
 217 011e 0123     		movs	r3, #1
 218 0120 3A46     		mov	r2, r7
 219 0122 0521     		movs	r1, #5
 220 0124 0220     		movs	r0, #2
 221 0126 FFF7FEFF 		bl	show_string_atype
 222              	.LVL8:
  30:Src/display.c ****     display_array[0] = gettime.Seconds / 10 + 0x30;
 223              		.loc 1 30 5 view .LVU50
 224              		.loc 1 30 31 is_stmt 0 view .LVU51
 225 012a B378     		ldrb	r3, [r6, #2]	@ zero_extendqisi2
 226              		.loc 1 30 45 view .LVU52
 227 012c A5FB0325 		umull	r2, r5, r5, r3
 228 0130 ED08     		lsrs	r5, r5, #3
 229 0132 05F13002 		add	r2, r5, #48
 230              		.loc 1 30 22 view .LVU53
 231 0136 2270     		strb	r2, [r4]
  31:Src/display.c ****     display_array[1] = gettime.Seconds % 10 + 0x30;
 232              		.loc 1 31 5 is_stmt 1 view .LVU54
 233              		.loc 1 31 45 is_stmt 0 view .LVU55
 234 0138 05EB8505 		add	r5, r5, r5, lsl #2
 235 013c 6A00     		lsls	r2, r5, #1
 236 013e 9B1A     		subs	r3, r3, r2
 237 0140 3033     		adds	r3, r3, #48
 238              		.loc 1 31 22 view .LVU56
 239 0142 6370     		strb	r3, [r4, #1]
  32:Src/display.c ****     show_string_atype(2, 6, display_array, 2);
 240              		.loc 1 32 5 is_stmt 1 view .LVU57
 241 0144 0223     		movs	r3, #2
 242 0146 2246     		mov	r2, r4
 243 0148 0621     		movs	r1, #6
 244 014a 1846     		mov	r0, r3
 245 014c FFF7FEFF 		bl	show_string_atype
 246              	.LVL9:
  33:Src/display.c **** }...
 247              		.loc 1 33 1 is_stmt 0 view .LVU58
 248 0150 F8BD     		pop	{r3, r4, r5, r6, r7, pc}
 249              	.L4:
 250 0152 00BF     		.align	2
 251              	.L3:
 252 0154 00000000 		.word	getdate
 253 0158 00000000 		.word	.LANCHOR0
ARM GAS  C:\Users\25339\AppData\Local\Temp\cclbzSdf.s 			page 6


 254 015c 1F85EB51 		.word	1374389535
 255 0160 CDCCCCCC 		.word	-858993459
 256 0164 00000000 		.word	.LC0
 257 0168 00000000 		.word	gettime
 258 016c 04000000 		.word	.LC1
 259              		.cfi_endproc
 260              	.LFE65:
 262              		.global	display_array
 263              		.comm	gettime,3,4
 264              		.comm	getdate,4,4
 265              		.section	.bss.display_array,"aw",%nobits
 266              		.align	2
 267              		.set	.LANCHOR0,. + 0
 270              	display_array:
 271 0000 00000000 		.space	256
 271      00000000 
 271      00000000 
 271      00000000 
 271      00000000 
 272              		.text
 273              	.Letext0:
 274              		.file 2 "f:\\work_project\\9 2019-q4-major\\arm-none-eabi\\include\\machine\\_default_types.h"
 275              		.file 3 "f:\\work_project\\9 2019-q4-major\\arm-none-eabi\\include\\sys\\_stdint.h"
 276              		.file 4 "Drivers/CMSIS/Include/core_cm3.h"
 277              		.file 5 "Drivers/CMSIS/Device/ST/STM32F1xx/Include/system_stm32f1xx.h"
 278              		.file 6 "Drivers/CMSIS/Device/ST/STM32F1xx/Include/stm32f103xe.h"
 279              		.file 7 "Drivers/STM32F1xx_HAL_Driver/Inc/stm32f1xx_hal_def.h"
 280              		.file 8 "Drivers/STM32F1xx_HAL_Driver/Inc/stm32f1xx_hal_dma.h"
 281              		.file 9 "Drivers/STM32F1xx_HAL_Driver/Inc/stm32f1xx_hal_i2c.h"
 282              		.file 10 "Drivers/STM32F1xx_HAL_Driver/Inc/stm32f1xx_hal_rtc.h"
 283              		.file 11 "Drivers/STM32F1xx_HAL_Driver/Inc/stm32f1xx_hal.h"
 284              		.file 12 "Inc/i2c.h"
 285              		.file 13 "Inc/rtc.h"
 286              		.file 14 "Inc/oled.h"
ARM GAS  C:\Users\25339\AppData\Local\Temp\cclbzSdf.s 			page 7

