ARM GAS  C:\Users\25339\AppData\Local\Temp\cc6v9mwo.s 			page 1


   1              		.cpu cortex-m3
   2              		.eabi_attribute 20, 1
   3              		.eabi_attribute 21, 1
   4              		.eabi_attribute 23, 3
   5              		.eabi_attribute 24, 1
   6              		.eabi_attribute 25, 1
   7              		.eabi_attribute 26, 1
   8              		.eabi_attribute 30, 1
   9              		.eabi_attribute 34, 1
  10              		.eabi_attribute 18, 4
  11              		.file	"main.c"
  12              		.text
  13              	.Ltext0:
  14              		.cfi_sections	.debug_frame
  15              		.section	.text.fputc,"ax",%progbits
  16              		.align	1
  17              		.global	fputc
  18              		.arch armv7-m
  19              		.syntax unified
  20              		.thumb
  21              		.thumb_func
  22              		.fpu softvfp
  24              	fputc:
  25              	.LVL0:
  26              	.LFB68:
  27              		.file 1 "Src/main.c"
   1:Src/main.c    **** /* USER CODE BEGIN Header */
   2:Src/main.c    **** /**
   3:Src/main.c    ****   ******************************************************************************
   4:Src/main.c    ****   * @file           : main.c
   5:Src/main.c    ****   * @brief          : Main program body
   6:Src/main.c    ****   ******************************************************************************
   7:Src/main.c    ****   * @attention
   8:Src/main.c    ****   *
   9:Src/main.c    ****   * <h2><center>&copy; Copyright (c) 2020 STMicroelectronics.
  10:Src/main.c    ****   * All rights reserved.</center></h2>
  11:Src/main.c    ****   *
  12:Src/main.c    ****   * This software component is licensed by ST under BSD 3-Clause license,
  13:Src/main.c    ****   * the "License"; You may not use this file except in compliance with the
  14:Src/main.c    ****   * License. You may obtain a copy of the License at:
  15:Src/main.c    ****   *                        opensource.org/licenses/BSD-3-Clause
  16:Src/main.c    ****   *
  17:Src/main.c    ****   ******************************************************************************
  18:Src/main.c    ****   */
  19:Src/main.c    **** /* USER CODE END Header */
  20:Src/main.c    **** 
  21:Src/main.c    **** /* Includes ------------------------------------------------------------------*/
  22:Src/main.c    **** #include "main.h"
  23:Src/main.c    **** #include "i2c.h"
  24:Src/main.c    **** #include "rtc.h"
  25:Src/main.c    **** #include "tim.h"
  26:Src/main.c    **** #include "usart.h"
  27:Src/main.c    **** #include "gpio.h"
  28:Src/main.c    **** 
  29:Src/main.c    **** /* Private includes ----------------------------------------------------------*/
  30:Src/main.c    **** /* USER CODE BEGIN Includes */
  31:Src/main.c    **** #include "oled.h"
ARM GAS  C:\Users\25339\AppData\Local\Temp\cc6v9mwo.s 			page 2


  32:Src/main.c    **** #include "stdio.h"
  33:Src/main.c    **** #include "stdlib.h"
  34:Src/main.c    **** #include "display.h"
  35:Src/main.c    **** #include "uart1.h"
  36:Src/main.c    **** /* USER CODE END Includes */
  37:Src/main.c    **** 
  38:Src/main.c    **** /* Private typedef -----------------------------------------------------------*/
  39:Src/main.c    **** /* USER CODE BEGIN PTD */
  40:Src/main.c    **** /*printf()閲嶅畾涔?*/
  41:Src/main.c    **** int fputc(int ch, FILE *f)
  42:Src/main.c    **** {
  28              		.loc 1 42 1 view -0
  29              		.cfi_startproc
  30              		@ args = 0, pretend = 0, frame = 8
  31              		@ frame_needed = 0, uses_anonymous_args = 0
  32              		.loc 1 42 1 is_stmt 0 view .LVU1
  33 0000 00B5     		push	{lr}
  34              	.LCFI0:
  35              		.cfi_def_cfa_offset 4
  36              		.cfi_offset 14, -4
  37 0002 83B0     		sub	sp, sp, #12
  38              	.LCFI1:
  39              		.cfi_def_cfa_offset 16
  40 0004 0190     		str	r0, [sp, #4]
  43:Src/main.c    ****     HAL_UART_Transmit(&huart1, (uint8_t *)&ch, 1, 1000);
  41              		.loc 1 43 5 is_stmt 1 view .LVU2
  42 0006 4FF47A73 		mov	r3, #1000
  43 000a 0122     		movs	r2, #1
  44 000c 01A9     		add	r1, sp, #4
  45              	.LVL1:
  46              		.loc 1 43 5 is_stmt 0 view .LVU3
  47 000e 0348     		ldr	r0, .L3
  48              	.LVL2:
  49              		.loc 1 43 5 view .LVU4
  50 0010 FFF7FEFF 		bl	HAL_UART_Transmit
  51              	.LVL3:
  44:Src/main.c    ****     return (ch);
  52              		.loc 1 44 5 is_stmt 1 view .LVU5
  45:Src/main.c    **** }
  53              		.loc 1 45 1 is_stmt 0 view .LVU6
  54 0014 0198     		ldr	r0, [sp, #4]
  55 0016 03B0     		add	sp, sp, #12
  56              	.LCFI2:
  57              		.cfi_def_cfa_offset 4
  58              		@ sp needed
  59 0018 5DF804FB 		ldr	pc, [sp], #4
  60              	.L4:
  61              		.align	2
  62              	.L3:
  63 001c 00000000 		.word	huart1
  64              		.cfi_endproc
  65              	.LFE68:
  67              		.section	.text.SystemClock_Config,"ax",%progbits
  68              		.align	1
  69              		.global	SystemClock_Config
  70              		.syntax unified
  71              		.thumb
ARM GAS  C:\Users\25339\AppData\Local\Temp\cc6v9mwo.s 			page 3


  72              		.thumb_func
  73              		.fpu softvfp
  75              	SystemClock_Config:
  76              	.LFB70:
  46:Src/main.c    **** 
  47:Src/main.c    **** /* USER CODE END PTD */
  48:Src/main.c    **** 
  49:Src/main.c    **** /* Private define ------------------------------------------------------------*/
  50:Src/main.c    **** /* USER CODE BEGIN PD */
  51:Src/main.c    **** /* USER CODE END PD */
  52:Src/main.c    **** 
  53:Src/main.c    **** /* Private macro -------------------------------------------------------------*/
  54:Src/main.c    **** /* USER CODE BEGIN PM */
  55:Src/main.c    **** 
  56:Src/main.c    **** /* USER CODE END PM */
  57:Src/main.c    **** 
  58:Src/main.c    **** /* Private variables ---------------------------------------------------------*/
  59:Src/main.c    **** 
  60:Src/main.c    **** /* USER CODE BEGIN PV */
  61:Src/main.c    **** 
  62:Src/main.c    **** /* USER CODE END PV */
  63:Src/main.c    **** 
  64:Src/main.c    **** /* Private function prototypes -----------------------------------------------*/
  65:Src/main.c    **** void SystemClock_Config(void);
  66:Src/main.c    **** /* USER CODE BEGIN PFP */
  67:Src/main.c    **** 
  68:Src/main.c    **** /* USER CODE END PFP */
  69:Src/main.c    **** 
  70:Src/main.c    **** /* Private user code ---------------------------------------------------------*/
  71:Src/main.c    **** /* USER CODE BEGIN 0 */
  72:Src/main.c    **** 
  73:Src/main.c    **** /* USER CODE END 0 */
  74:Src/main.c    **** 
  75:Src/main.c    **** /**
  76:Src/main.c    ****   * @brief  The application entry point.
  77:Src/main.c    ****   * @retval int
  78:Src/main.c    ****   */
  79:Src/main.c    **** int main(void)
  80:Src/main.c    **** {
  81:Src/main.c    ****   /* USER CODE BEGIN 1 */
  82:Src/main.c    ****     unsigned char BMP1[] =
  83:Src/main.c    ****         {
  84:Src/main.c    ****             0x00, 0x00, 0x00, 0x00, 0x00, 0x00, 0x00, 0x00, 0x00, 0x00, 0x00, 0x00, 0x00, 0x00, 0x0
  85:Src/main.c    ****             0x00, 0x00, 0x00, 0x00, 0x00, 0x00, 0x00, 0x00, 0x00, 0x00, 0x00, 0x00, 0x00, 0x00, 0x0
  86:Src/main.c    ****             0x00, 0x00, 0x00, 0x00, 0x00, 0x00, 0x00, 0x00, 0x00, 0x00, 0x00, 0x00, 0x00, 0x00, 0x0
  87:Src/main.c    ****             0x00, 0x00, 0x00, 0x00, 0x00, 0x00, 0x00, 0x00, 0x00, 0x00, 0x00, 0x00, 0x00, 0x00, 0x0
  88:Src/main.c    ****             0x00, 0x00, 0x00, 0x00, 0x00, 0x00, 0x00, 0x00, 0x00, 0x00, 0x00, 0x00, 0x00, 0x00, 0x0
  89:Src/main.c    ****             0x00, 0x00, 0x00, 0x00, 0x00, 0x00, 0x00, 0xE0, 0xF8, 0xFE, 0xFF, 0x3F, 0xFF, 0xFF, 0xF
  90:Src/main.c    ****             0x00, 0x00, 0x00, 0x00, 0x00, 0x00, 0x00, 0x00, 0x00, 0x00, 0x00, 0x00, 0x00, 0x00, 0x0
  91:Src/main.c    ****             0x00, 0x00, 0x00, 0x00, 0x00, 0x00, 0x00, 0x00, 0x00, 0x00, 0x00, 0x00, 0x00, 0x00, 0x0
  92:Src/main.c    ****             0x00, 0x00, 0x00, 0x00, 0x00, 0x00, 0x00, 0x00, 0x00, 0x00, 0x00, 0x00, 0x00, 0x00, 0x0
  93:Src/main.c    ****             0x00, 0x00, 0x00, 0x00, 0x80, 0x80, 0x80, 0x80, 0x80, 0x80, 0x80, 0x80, 0x80, 0x00, 0x0
  94:Src/main.c    ****             0x00, 0x00, 0x00, 0x00, 0x00, 0x00, 0x00, 0x00, 0x00, 0x00, 0x00, 0x00, 0x00, 0x00, 0x0
  95:Src/main.c    ****             0x00, 0x80, 0x80, 0x80, 0xC0, 0xC0, 0xC0, 0xC0, 0xC0, 0xC0, 0x80, 0x00, 0x00, 0x00, 0x0
  96:Src/main.c    ****             0x00, 0x00, 0x00, 0x00, 0x00, 0x00, 0x00, 0x00, 0x00, 0x00, 0x00, 0x00, 0x00, 0x00, 0x0
  97:Src/main.c    ****             0x00, 0x00, 0x00, 0x00, 0xC0, 0xFC, 0xFE, 0xFF, 0x1F, 0x0F, 0x00, 0x00, 0x01, 0x1F, 0x7
  98:Src/main.c    ****             0xFE, 0xF0, 0xC0, 0x00, 0x00, 0x00, 0x00, 0x00, 0x00, 0x00, 0x00, 0x00, 0x00, 0x00, 0x0
ARM GAS  C:\Users\25339\AppData\Local\Temp\cc6v9mwo.s 			page 4


  99:Src/main.c    ****             0x00, 0x00, 0x00, 0x00, 0x00, 0x00, 0x00, 0x00, 0x00, 0x00, 0x00, 0x00, 0x00, 0x00, 0x0
 100:Src/main.c    ****             0x00, 0x00, 0x00, 0x00, 0x00, 0x00, 0x00, 0x00, 0x00, 0x00, 0x00, 0x00, 0x00, 0x00, 0xE
 101:Src/main.c    ****             0xFE, 0xFF, 0x3F, 0x0F, 0x07, 0x07, 0x07, 0x03, 0x03, 0x03, 0x07, 0x07, 0x07, 0x07, 0x0
 102:Src/main.c    ****             0xFF, 0xFF, 0xFF, 0xC0, 0xC0, 0xE0, 0xE0, 0xF0, 0xF0, 0xF0, 0x78, 0x78, 0x7C, 0x3C, 0x3
 103:Src/main.c    ****             0x1F, 0x1F, 0x0F, 0x07, 0x03, 0x03, 0x03, 0x03, 0x0F, 0x1F, 0x3F, 0xFE, 0xFC, 0xF8, 0xC
 104:Src/main.c    ****             0x00, 0x00, 0x00, 0x00, 0x00, 0x00, 0x00, 0x00, 0x00, 0x00, 0x00, 0x00, 0x00, 0x00, 0x0
 105:Src/main.c    ****             0x00, 0x80, 0xFC, 0xFE, 0xFF, 0x1F, 0x0F, 0x01, 0x80, 0x80, 0x80, 0x80, 0x80, 0x80, 0x8
 106:Src/main.c    ****             0x8F, 0xFF, 0xFF, 0xFF, 0xF0, 0xE0, 0x80, 0x80, 0x80, 0x80, 0x80, 0x80, 0x80, 0x80, 0x8
 107:Src/main.c    ****             0x80, 0x80, 0x80, 0x80, 0x80, 0x80, 0x80, 0x80, 0x80, 0x80, 0x80, 0x80, 0x80, 0x00, 0x0
 108:Src/main.c    ****             0x00, 0x00, 0x00, 0x00, 0x00, 0x00, 0x00, 0x00, 0x00, 0x00, 0x00, 0x00, 0x00, 0x00, 0xF
 109:Src/main.c    ****             0xFF, 0x00, 0x00, 0x00, 0x00, 0x00, 0x00, 0x00, 0x00, 0x00, 0x00, 0x00, 0x00, 0x00, 0x0
 110:Src/main.c    ****             0x07, 0x07, 0x07, 0x03, 0x03, 0x01, 0x01, 0x01, 0x00, 0x00, 0x00, 0x00, 0x00, 0x00, 0x0
 111:Src/main.c    ****             0x00, 0x00, 0x00, 0x00, 0x00, 0x00, 0x00, 0x00, 0x00, 0x00, 0x00, 0x01, 0x07, 0x1F, 0xF
 112:Src/main.c    ****             0xFC, 0x00, 0x00, 0x00, 0xFE, 0xFE, 0xFE, 0xFC, 0x9C, 0x1C, 0x1C, 0x1C, 0x1C, 0x1C, 0x1
 113:Src/main.c    ****             0xFC, 0xFF, 0xFF, 0x3F, 0x1F, 0x1F, 0x1F, 0x3F, 0x3F, 0x7F, 0x3F, 0x13, 0x03, 0x03, 0x0
 114:Src/main.c    ****             0x03, 0x03, 0x03, 0x03, 0x7F, 0xFF, 0xFF, 0xF3, 0x03, 0x03, 0x03, 0x83, 0xC3, 0xC3, 0xE
 115:Src/main.c    ****             0xF3, 0xFB, 0xFB, 0x7B, 0x3F, 0x3F, 0x3F, 0x1F, 0x0F, 0x0F, 0x07, 0x03, 0x03, 0x00, 0x0
 116:Src/main.c    ****             0x00, 0x00, 0x00, 0x00, 0x00, 0x00, 0x00, 0x00, 0x00, 0x00, 0x00, 0x00, 0x00, 0x00, 0xF
 117:Src/main.c    ****             0xFF, 0x00, 0x00, 0x00, 0x00, 0x00, 0x00, 0x00, 0x00, 0x00, 0x00, 0x00, 0x00, 0x00, 0x0
 118:Src/main.c    ****             0x00, 0x00, 0x00, 0x00, 0x00, 0x00, 0x00, 0x00, 0x00, 0x00, 0x00, 0x00, 0x00, 0x00, 0x0
 119:Src/main.c    ****             0x00, 0x00, 0x00, 0x00, 0x00, 0x00, 0x00, 0x00, 0x00, 0x00, 0x00, 0x00, 0x00, 0x00, 0xF
 120:Src/main.c    ****             0xFF, 0x00, 0x00, 0x00, 0x00, 0x03, 0x0F, 0x3F, 0x3F, 0x3E, 0x38, 0x78, 0x78, 0xF8, 0xF
 121:Src/main.c    ****             0xFF, 0xFF, 0xE7, 0xC0, 0xC0, 0x80, 0x00, 0x00, 0x00, 0x00, 0x00, 0x00, 0x00, 0x00, 0x0
 122:Src/main.c    ****             0x80, 0xC0, 0xE0, 0xF0, 0xF0, 0xFF, 0x7F, 0xFF, 0xFE, 0xFE, 0x9F, 0x0F, 0x0F, 0x07, 0x0
 123:Src/main.c    ****             0x01, 0x00, 0x00, 0x00, 0x00, 0x00, 0x00, 0x00, 0x00, 0x00, 0x00, 0x00, 0x00, 0x00, 0x0
 124:Src/main.c    ****             0x00, 0x00, 0x00, 0x00, 0x00, 0x00, 0x00, 0x00, 0x00, 0x00, 0x00, 0x00, 0x00, 0x00, 0x7
 125:Src/main.c    ****             0xFF, 0xF0, 0xE0, 0xC0, 0x80, 0x00, 0x00, 0x00, 0x00, 0x00, 0x00, 0x00, 0x00, 0x00, 0x0
 126:Src/main.c    ****             0x00, 0x00, 0x00, 0x00, 0x00, 0x00, 0x00, 0x00, 0x00, 0x00, 0x00, 0x00, 0x00, 0x00, 0x0
 127:Src/main.c    ****             0x00, 0x00, 0x00, 0x00, 0x00, 0x00, 0x00, 0x00, 0x00, 0x80, 0xC0, 0xE0, 0xF8, 0xFF, 0xF
 128:Src/main.c    ****             0x07, 0x00, 0x00, 0x00, 0x00, 0x00, 0x00, 0x00, 0x00, 0x00, 0x00, 0x00, 0xF0, 0xFF, 0xF
 129:Src/main.c    ****             0x01, 0x01, 0x03, 0x87, 0x87, 0xCF, 0xDF, 0xFF, 0xFE, 0xFC, 0xFC, 0xF8, 0xFC, 0xFE, 0xF
 130:Src/main.c    ****             0xEF, 0xC7, 0xC7, 0x83, 0x01, 0x00, 0x00, 0x03, 0x0F, 0x1F, 0xFF, 0xFE, 0xFC, 0xE0, 0xC
 131:Src/main.c    ****             0x00, 0x00, 0x00, 0x00, 0x00, 0x00, 0x00, 0x00, 0x00, 0x00, 0x00, 0x00, 0x00, 0x00, 0x0
 132:Src/main.c    ****             0x00, 0x00, 0x00, 0x00, 0x00, 0x00, 0x00, 0x00, 0x00, 0x00, 0x00, 0x00, 0x00, 0x00, 0x0
 133:Src/main.c    ****             0x01, 0x03, 0x07, 0x0F, 0x1F, 0x3F, 0x7E, 0x7C, 0xF8, 0xF0, 0xF0, 0xE0, 0xE0, 0xC0, 0xC
 134:Src/main.c    ****             0x80, 0x00, 0x00, 0x00, 0x00, 0x00, 0x00, 0x00, 0x00, 0x00, 0x00, 0x00, 0x00, 0x00, 0x0
 135:Src/main.c    ****             0x00, 0x00, 0x80, 0xC0, 0xE0, 0xF0, 0xF8, 0xFC, 0x7E, 0x3F, 0x1F, 0x0F, 0x03, 0x01, 0x0
 136:Src/main.c    ****             0x00, 0x00, 0x00, 0x00, 0x00, 0x00, 0x00, 0x00, 0x00, 0x00, 0x00, 0x00, 0x7F, 0x7F, 0x7
 137:Src/main.c    ****             0x3E, 0x3F, 0x1F, 0x0F, 0x07, 0x07, 0x03, 0x03, 0x01, 0x01, 0x00, 0x00, 0x00, 0x00, 0x0
 138:Src/main.c    ****             0x03, 0x07, 0x0F, 0x1F, 0x1F, 0x3E, 0x3C, 0x3C, 0x78, 0x78, 0xF8, 0xF1, 0xFF, 0xFF, 0xF
 139:Src/main.c    ****             0xFC, 0xC0, 0x00, 0x00, 0x00, 0x00, 0x00, 0x00, 0x00, 0x00, 0x00, 0x00, 0x00, 0x00, 0x0
 140:Src/main.c    ****             0x00, 0x00, 0x00, 0x00, 0x00, 0x00, 0x00, 0x00, 0x00, 0x00, 0x00, 0x00, 0x00, 0x00, 0x0
 141:Src/main.c    ****             0x00, 0x00, 0x00, 0x00, 0x00, 0x00, 0x00, 0x00, 0x00, 0x00, 0x01, 0x01, 0x03, 0x03, 0x0
 142:Src/main.c    ****             0x0F, 0x0F, 0x1E, 0x3E, 0x3E, 0x3C, 0x38, 0x78, 0x78, 0xF8, 0xFC, 0xFE, 0xFE, 0x1E, 0x0
 143:Src/main.c    ****             0x0F, 0x0F, 0x0F, 0x07, 0x07, 0x03, 0x01, 0x00, 0x00, 0x00, 0x00, 0x00, 0x00, 0x00, 0x0
 144:Src/main.c    ****             0x00, 0x00, 0x00, 0x00, 0x00, 0x00, 0x00, 0x00, 0x00, 0x00, 0x00, 0x00, 0x00, 0x00, 0x0
 145:Src/main.c    ****             0x00, 0x00, 0x00, 0x00, 0x00, 0x00, 0x00, 0x00, 0x00, 0x00, 0x00, 0x00, 0x00, 0x00, 0x0
 146:Src/main.c    ****             0x00, 0x00, 0x00, 0x00, 0x00, 0x00, 0x00, 0x00, 0x00, 0x00, 0x00, 0x00, 0x01, 0x03, 0x0
 147:Src/main.c    ****             0x0F, 0x0F, 0x0F, 0x00, 0x00, 0x00, 0x00, 0x00, 0x00, 0x00, 0x00, 0x00, 0x00, 0x00, 0x0
 148:Src/main.c    ****   /* USER CODE END 1 */
 149:Src/main.c    ****   
 150:Src/main.c    **** 
 151:Src/main.c    ****   /* MCU Configuration--------------------------------------------------------*/
 152:Src/main.c    **** 
 153:Src/main.c    ****   /* Reset of all peripherals, Initializes the Flash interface and the Systick. */
 154:Src/main.c    ****   HAL_Init();
 155:Src/main.c    **** 
ARM GAS  C:\Users\25339\AppData\Local\Temp\cc6v9mwo.s 			page 5


 156:Src/main.c    ****   /* USER CODE BEGIN Init */
 157:Src/main.c    **** 
 158:Src/main.c    ****   /* USER CODE END Init */
 159:Src/main.c    **** 
 160:Src/main.c    ****   /* Configure the system clock */
 161:Src/main.c    ****   SystemClock_Config();
 162:Src/main.c    **** 
 163:Src/main.c    ****   /* USER CODE BEGIN SysInit */
 164:Src/main.c    **** 
 165:Src/main.c    ****   /* USER CODE END SysInit */
 166:Src/main.c    **** 
 167:Src/main.c    ****   /* Initialize all configured peripherals */
 168:Src/main.c    ****   MX_GPIO_Init();
 169:Src/main.c    ****   MX_I2C1_Init();
 170:Src/main.c    ****   MX_RTC_Init();
 171:Src/main.c    ****   MX_USART1_UART_Init();
 172:Src/main.c    ****   MX_TIM6_Init();
 173:Src/main.c    ****   /* USER CODE BEGIN 2 */
 174:Src/main.c    ****     OLED_Init();
 175:Src/main.c    ****     OLED_CLS();
 176:Src/main.c    **** 
 177:Src/main.c    ****     /*2.涓柇鎺ユ敹浣胯兘鍑芥暟*/
 178:Src/main.c    ****     HAL_UART_Receive_IT(&huart1,uart1_rxbuffer,10);
 179:Src/main.c    ****     /*1.浣胯兘鍩虹瀹氭椂鍣?6涔嬪墠娓呬腑鏂?*/
 180:Src/main.c    ****     __HAL_TIM_CLEAR_FLAG(&htim6, TIM_FLAG_UPDATE);
 181:Src/main.c    ****     /*涓柇鏂瑰紡鍚姩瀹氭椂鍣?*/
 182:Src/main.c    ****     HAL_TIM_Base_Start_IT(&htim6);
 183:Src/main.c    ****     /*1s瀹氭椂鏍囧織浣?*/
 184:Src/main.c    ****     g_1s_flag = 1;
 185:Src/main.c    **** 
 186:Src/main.c    ****     /* USER CODE END 2 */
 187:Src/main.c    **** 
 188:Src/main.c    ****     /* Infinite loop */
 189:Src/main.c    ****     /* USER CODE BEGIN WHILE */
 190:Src/main.c    ****     while (1)
 191:Src/main.c    ****     {
 192:Src/main.c    ****     /* USER CODE END WHILE */
 193:Src/main.c    **** 
 194:Src/main.c    ****     /* USER CODE BEGIN 3 */
 195:Src/main.c    ****         if (g_1s_flag)
 196:Src/main.c    ****         {
 197:Src/main.c    ****             g_1s_flag = 0;
 198:Src/main.c    ****             get_time(&gettime, &getdate);
 199:Src/main.c    ****             /*display time format:hh/mm/ss*/
 200:Src/main.c    ****             printf("%02d/%02d/%02d\r\n", gettime.Hours, gettime.Minutes, gettime.Seconds);
 201:Src/main.c    ****             /*display date format:yy/mm/dd*/
 202:Src/main.c    ****             printf("%02d/%02d/%02d\r\n", getdate.Year, getdate.Month, getdate.Date);
 203:Src/main.c    ****         }
 204:Src/main.c    ****         show_chs_string(0, 0, "苏培佩我爱你！");
 205:Src/main.c    ****         show_chs_string(2, 0, "高凯琦加油！");
 206:Src/main.c    ****         show_string_atype(4, 0, "1234567890", 10);
 207:Src/main.c    ****         show_string_atype(6, 0, "asdfghjkl", 9);
 208:Src/main.c    ****         HAL_Delay(3000);
 209:Src/main.c    ****         OLED_CLS();
 210:Src/main.c    ****         show_drawBMP(0, 0, 7, 127, BMP1);
 211:Src/main.c    ****         HAL_Delay(3000);
 212:Src/main.c    ****         OLED_CLS();
ARM GAS  C:\Users\25339\AppData\Local\Temp\cc6v9mwo.s 			page 6


 213:Src/main.c    ****         display_time();
 214:Src/main.c    ****         HAL_Delay(3000);
 215:Src/main.c    ****         OLED_CLS();
 216:Src/main.c    ****     }
 217:Src/main.c    ****   /* USER CODE END 3 */
 218:Src/main.c    **** }
 219:Src/main.c    **** 
 220:Src/main.c    **** /**
 221:Src/main.c    ****   * @brief System Clock Configuration
 222:Src/main.c    ****   * @retval None
 223:Src/main.c    ****   */
 224:Src/main.c    **** void SystemClock_Config(void)
 225:Src/main.c    **** {
  77              		.loc 1 225 1 is_stmt 1 view -0
  78              		.cfi_startproc
  79              		@ args = 0, pretend = 0, frame = 88
  80              		@ frame_needed = 0, uses_anonymous_args = 0
  81 0000 70B5     		push	{r4, r5, r6, lr}
  82              	.LCFI3:
  83              		.cfi_def_cfa_offset 16
  84              		.cfi_offset 4, -16
  85              		.cfi_offset 5, -12
  86              		.cfi_offset 6, -8
  87              		.cfi_offset 14, -4
  88 0002 96B0     		sub	sp, sp, #88
  89              	.LCFI4:
  90              		.cfi_def_cfa_offset 104
 226:Src/main.c    ****   RCC_OscInitTypeDef RCC_OscInitStruct = {0};
  91              		.loc 1 226 3 view .LVU8
  92              		.loc 1 226 22 is_stmt 0 view .LVU9
  93 0004 0024     		movs	r4, #0
  94 0006 1194     		str	r4, [sp, #68]
  95 0008 1294     		str	r4, [sp, #72]
 227:Src/main.c    ****   RCC_ClkInitTypeDef RCC_ClkInitStruct = {0};
  96              		.loc 1 227 3 is_stmt 1 view .LVU10
  97              		.loc 1 227 22 is_stmt 0 view .LVU11
  98 000a 0794     		str	r4, [sp, #28]
  99 000c 0894     		str	r4, [sp, #32]
 100 000e 0994     		str	r4, [sp, #36]
 101 0010 0A94     		str	r4, [sp, #40]
 102 0012 0B94     		str	r4, [sp, #44]
 228:Src/main.c    ****   RCC_PeriphCLKInitTypeDef PeriphClkInit = {0};
 103              		.loc 1 228 3 is_stmt 1 view .LVU12
 104              		.loc 1 228 28 is_stmt 0 view .LVU13
 105 0014 0194     		str	r4, [sp, #4]
 106 0016 0294     		str	r4, [sp, #8]
 107 0018 0394     		str	r4, [sp, #12]
 108 001a 0494     		str	r4, [sp, #16]
 109 001c 0594     		str	r4, [sp, #20]
 110 001e 0694     		str	r4, [sp, #24]
 229:Src/main.c    **** 
 230:Src/main.c    ****   /** Initializes the CPU, AHB and APB busses clocks 
 231:Src/main.c    ****   */
 232:Src/main.c    ****   RCC_OscInitStruct.OscillatorType = RCC_OSCILLATORTYPE_HSE|RCC_OSCILLATORTYPE_LSE;
 111              		.loc 1 232 3 is_stmt 1 view .LVU14
 112              		.loc 1 232 36 is_stmt 0 view .LVU15
 113 0020 0523     		movs	r3, #5
ARM GAS  C:\Users\25339\AppData\Local\Temp\cc6v9mwo.s 			page 7


 114 0022 0C93     		str	r3, [sp, #48]
 233:Src/main.c    ****   RCC_OscInitStruct.HSEState = RCC_HSE_ON;
 115              		.loc 1 233 3 is_stmt 1 view .LVU16
 116              		.loc 1 233 30 is_stmt 0 view .LVU17
 117 0024 4FF48033 		mov	r3, #65536
 118 0028 0D93     		str	r3, [sp, #52]
 234:Src/main.c    ****   RCC_OscInitStruct.HSEPredivValue = RCC_HSE_PREDIV_DIV1;
 119              		.loc 1 234 3 is_stmt 1 view .LVU18
 120              		.loc 1 234 36 is_stmt 0 view .LVU19
 121 002a 0E94     		str	r4, [sp, #56]
 235:Src/main.c    ****   RCC_OscInitStruct.LSEState = RCC_LSE_ON;
 122              		.loc 1 235 3 is_stmt 1 view .LVU20
 123              		.loc 1 235 30 is_stmt 0 view .LVU21
 124 002c 0125     		movs	r5, #1
 125 002e 0F95     		str	r5, [sp, #60]
 236:Src/main.c    ****   RCC_OscInitStruct.HSIState = RCC_HSI_ON;
 126              		.loc 1 236 3 is_stmt 1 view .LVU22
 127              		.loc 1 236 30 is_stmt 0 view .LVU23
 128 0030 1095     		str	r5, [sp, #64]
 237:Src/main.c    ****   RCC_OscInitStruct.PLL.PLLState = RCC_PLL_ON;
 129              		.loc 1 237 3 is_stmt 1 view .LVU24
 130              		.loc 1 237 34 is_stmt 0 view .LVU25
 131 0032 0226     		movs	r6, #2
 132 0034 1396     		str	r6, [sp, #76]
 238:Src/main.c    ****   RCC_OscInitStruct.PLL.PLLSource = RCC_PLLSOURCE_HSE;
 133              		.loc 1 238 3 is_stmt 1 view .LVU26
 134              		.loc 1 238 35 is_stmt 0 view .LVU27
 135 0036 1493     		str	r3, [sp, #80]
 239:Src/main.c    ****   RCC_OscInitStruct.PLL.PLLMUL = RCC_PLL_MUL9;
 136              		.loc 1 239 3 is_stmt 1 view .LVU28
 137              		.loc 1 239 32 is_stmt 0 view .LVU29
 138 0038 4FF4E013 		mov	r3, #1835008
 139 003c 1593     		str	r3, [sp, #84]
 240:Src/main.c    ****   if (HAL_RCC_OscConfig(&RCC_OscInitStruct) != HAL_OK)
 140              		.loc 1 240 3 is_stmt 1 view .LVU30
 141              		.loc 1 240 7 is_stmt 0 view .LVU31
 142 003e 0CA8     		add	r0, sp, #48
 143 0040 FFF7FEFF 		bl	HAL_RCC_OscConfig
 144              	.LVL4:
 241:Src/main.c    ****   {
 242:Src/main.c    ****     Error_Handler();
 243:Src/main.c    ****   }
 244:Src/main.c    ****   /** Initializes the CPU, AHB and APB busses clocks 
 245:Src/main.c    ****   */
 246:Src/main.c    ****   RCC_ClkInitStruct.ClockType = RCC_CLOCKTYPE_HCLK|RCC_CLOCKTYPE_SYSCLK
 145              		.loc 1 246 3 is_stmt 1 view .LVU32
 146              		.loc 1 246 31 is_stmt 0 view .LVU33
 147 0044 0F23     		movs	r3, #15
 148 0046 0793     		str	r3, [sp, #28]
 247:Src/main.c    ****                               |RCC_CLOCKTYPE_PCLK1|RCC_CLOCKTYPE_PCLK2;
 248:Src/main.c    ****   RCC_ClkInitStruct.SYSCLKSource = RCC_SYSCLKSOURCE_PLLCLK;
 149              		.loc 1 248 3 is_stmt 1 view .LVU34
 150              		.loc 1 248 34 is_stmt 0 view .LVU35
 151 0048 0896     		str	r6, [sp, #32]
 249:Src/main.c    ****   RCC_ClkInitStruct.AHBCLKDivider = RCC_SYSCLK_DIV1;
 152              		.loc 1 249 3 is_stmt 1 view .LVU36
 153              		.loc 1 249 35 is_stmt 0 view .LVU37
ARM GAS  C:\Users\25339\AppData\Local\Temp\cc6v9mwo.s 			page 8


 154 004a 0994     		str	r4, [sp, #36]
 250:Src/main.c    ****   RCC_ClkInitStruct.APB1CLKDivider = RCC_HCLK_DIV2;
 155              		.loc 1 250 3 is_stmt 1 view .LVU38
 156              		.loc 1 250 36 is_stmt 0 view .LVU39
 157 004c 4FF48063 		mov	r3, #1024
 158 0050 0A93     		str	r3, [sp, #40]
 251:Src/main.c    ****   RCC_ClkInitStruct.APB2CLKDivider = RCC_HCLK_DIV1;
 159              		.loc 1 251 3 is_stmt 1 view .LVU40
 160              		.loc 1 251 36 is_stmt 0 view .LVU41
 161 0052 0B94     		str	r4, [sp, #44]
 252:Src/main.c    **** 
 253:Src/main.c    ****   if (HAL_RCC_ClockConfig(&RCC_ClkInitStruct, FLASH_LATENCY_2) != HAL_OK)
 162              		.loc 1 253 3 is_stmt 1 view .LVU42
 163              		.loc 1 253 7 is_stmt 0 view .LVU43
 164 0054 3146     		mov	r1, r6
 165 0056 07A8     		add	r0, sp, #28
 166 0058 FFF7FEFF 		bl	HAL_RCC_ClockConfig
 167              	.LVL5:
 254:Src/main.c    ****   {
 255:Src/main.c    ****     Error_Handler();
 256:Src/main.c    ****   }
 257:Src/main.c    ****   PeriphClkInit.PeriphClockSelection = RCC_PERIPHCLK_RTC;
 168              		.loc 1 257 3 is_stmt 1 view .LVU44
 169              		.loc 1 257 38 is_stmt 0 view .LVU45
 170 005c 0195     		str	r5, [sp, #4]
 258:Src/main.c    ****   PeriphClkInit.RTCClockSelection = RCC_RTCCLKSOURCE_LSE;
 171              		.loc 1 258 3 is_stmt 1 view .LVU46
 172              		.loc 1 258 35 is_stmt 0 view .LVU47
 173 005e 4FF48073 		mov	r3, #256
 174 0062 0293     		str	r3, [sp, #8]
 259:Src/main.c    ****   if (HAL_RCCEx_PeriphCLKConfig(&PeriphClkInit) != HAL_OK)
 175              		.loc 1 259 3 is_stmt 1 view .LVU48
 176              		.loc 1 259 7 is_stmt 0 view .LVU49
 177 0064 01A8     		add	r0, sp, #4
 178 0066 FFF7FEFF 		bl	HAL_RCCEx_PeriphCLKConfig
 179              	.LVL6:
 260:Src/main.c    ****   {
 261:Src/main.c    ****     Error_Handler();
 262:Src/main.c    ****   }
 263:Src/main.c    **** }
 180              		.loc 1 263 1 view .LVU50
 181 006a 16B0     		add	sp, sp, #88
 182              	.LCFI5:
 183              		.cfi_def_cfa_offset 16
 184              		@ sp needed
 185 006c 70BD     		pop	{r4, r5, r6, pc}
 186              		.cfi_endproc
 187              	.LFE70:
 189              		.section	.rodata.main.str1.4,"aMS",%progbits,1
 190              		.align	2
 191              	.LC1:
 192 0000 25303264 		.ascii	"%02d/%02d/%02d\015\012\000"
 192      2F253032 
 192      642F2530 
 192      32640D0A 
 192      00
 193 0011 000000   		.align	2
ARM GAS  C:\Users\25339\AppData\Local\Temp\cc6v9mwo.s 			page 9


 194              	.LC2:
 195 0014 E88B8FE5 		.ascii	"\350\213\217\345\237\271\344\275\251\346\210\221\347"
 195      9FB9E4BD 
 195      A9E68891 
 195      E7
 196 0021 88B1E4BD 		.ascii	"\210\261\344\275\240\357\274\201\000"
 196      A0EFBC81 
 196      00
 197 002a 0000     		.align	2
 198              	.LC3:
 199 002c E9AB98E5 		.ascii	"\351\253\230\345\207\257\347\220\246\345\212\240\346"
 199      87AFE790 
 199      A6E58AA0 
 199      E6
 200 0039 B2B9EFBC 		.ascii	"\262\271\357\274\201\000"
 200      8100
 201 003f 00       		.align	2
 202              	.LC4:
 203 0040 31323334 		.ascii	"1234567890\000"
 203      35363738 
 203      393000
 204 004b 00       		.align	2
 205              	.LC5:
 206 004c 61736466 		.ascii	"asdfghjkl\000"
 206      67686A6B 
 206      6C00
 207              		.section	.text.main,"ax",%progbits
 208              		.align	1
 209              		.global	main
 210              		.syntax unified
 211              		.thumb
 212              		.thumb_func
 213              		.fpu softvfp
 215              	main:
 216              	.LFB69:
  80:Src/main.c    ****   /* USER CODE BEGIN 1 */
 217              		.loc 1 80 1 is_stmt 1 view -0
 218              		.cfi_startproc
 219              		@ Volatile: function does not return.
 220              		@ args = 0, pretend = 0, frame = 1024
 221              		@ frame_needed = 0, uses_anonymous_args = 0
 222 0000 00B5     		push	{lr}
 223              	.LCFI6:
 224              		.cfi_def_cfa_offset 4
 225              		.cfi_offset 14, -4
 226 0002 ADF20C4D 		subw	sp, sp, #1036
 227              	.LCFI7:
 228              		.cfi_def_cfa_offset 1040
  82:Src/main.c    ****         {
 229              		.loc 1 82 5 view .LVU52
  82:Src/main.c    ****         {
 230              		.loc 1 82 19 is_stmt 0 view .LVU53
 231 0006 4FF48062 		mov	r2, #1024
 232 000a 3949     		ldr	r1, .L11
 233 000c 02A8     		add	r0, sp, #8
 234 000e FFF7FEFF 		bl	memcpy
 235              	.LVL7:
ARM GAS  C:\Users\25339\AppData\Local\Temp\cc6v9mwo.s 			page 10


 154:Src/main.c    **** 
 236              		.loc 1 154 3 is_stmt 1 view .LVU54
 237 0012 FFF7FEFF 		bl	HAL_Init
 238              	.LVL8:
 161:Src/main.c    **** 
 239              		.loc 1 161 3 view .LVU55
 240 0016 FFF7FEFF 		bl	SystemClock_Config
 241              	.LVL9:
 168:Src/main.c    ****   MX_I2C1_Init();
 242              		.loc 1 168 3 view .LVU56
 243 001a FFF7FEFF 		bl	MX_GPIO_Init
 244              	.LVL10:
 169:Src/main.c    ****   MX_RTC_Init();
 245              		.loc 1 169 3 view .LVU57
 246 001e FFF7FEFF 		bl	MX_I2C1_Init
 247              	.LVL11:
 170:Src/main.c    ****   MX_USART1_UART_Init();
 248              		.loc 1 170 3 view .LVU58
 249 0022 FFF7FEFF 		bl	MX_RTC_Init
 250              	.LVL12:
 171:Src/main.c    ****   MX_TIM6_Init();
 251              		.loc 1 171 3 view .LVU59
 252 0026 FFF7FEFF 		bl	MX_USART1_UART_Init
 253              	.LVL13:
 172:Src/main.c    ****   /* USER CODE BEGIN 2 */
 254              		.loc 1 172 3 view .LVU60
 255 002a FFF7FEFF 		bl	MX_TIM6_Init
 256              	.LVL14:
 174:Src/main.c    ****     OLED_CLS();
 257              		.loc 1 174 5 view .LVU61
 258 002e FFF7FEFF 		bl	OLED_Init
 259              	.LVL15:
 175:Src/main.c    **** 
 260              		.loc 1 175 5 view .LVU62
 261 0032 FFF7FEFF 		bl	OLED_CLS
 262              	.LVL16:
 178:Src/main.c    ****     /*1.浣胯兘鍩虹瀹氭椂鍣?6涔嬪墠娓呬腑鏂?*/
 263              		.loc 1 178 5 view .LVU63
 264 0036 0A22     		movs	r2, #10
 265 0038 2E49     		ldr	r1, .L11+4
 266 003a 2F48     		ldr	r0, .L11+8
 267 003c FFF7FEFF 		bl	HAL_UART_Receive_IT
 268              	.LVL17:
 180:Src/main.c    ****     /*涓柇鏂瑰紡鍚姩瀹氭椂鍣?*/
 269              		.loc 1 180 5 view .LVU64
 270 0040 2E48     		ldr	r0, .L11+12
 271 0042 0368     		ldr	r3, [r0]
 272 0044 6FF00102 		mvn	r2, #1
 273 0048 1A61     		str	r2, [r3, #16]
 182:Src/main.c    ****     /*1s瀹氭椂鏍囧織浣?*/
 274              		.loc 1 182 5 view .LVU65
 275 004a FFF7FEFF 		bl	HAL_TIM_Base_Start_IT
 276              	.LVL18:
 184:Src/main.c    **** 
 277              		.loc 1 184 5 view .LVU66
 184:Src/main.c    **** 
 278              		.loc 1 184 15 is_stmt 0 view .LVU67
ARM GAS  C:\Users\25339\AppData\Local\Temp\cc6v9mwo.s 			page 11


 279 004e 2C4B     		ldr	r3, .L11+16
 280 0050 0122     		movs	r2, #1
 281 0052 1A70     		strb	r2, [r3]
 282 0054 31E0     		b	.L9
 283              	.L8:
 204:Src/main.c    ****         show_chs_string(2, 0, "高凯琦加油！");
 284              		.loc 1 204 9 is_stmt 1 view .LVU68
 285 0056 2B4A     		ldr	r2, .L11+20
 286 0058 0021     		movs	r1, #0
 287 005a 0846     		mov	r0, r1
 288 005c FFF7FEFF 		bl	show_chs_string
 289              	.LVL19:
 205:Src/main.c    ****         show_string_atype(4, 0, "1234567890", 10);
 290              		.loc 1 205 9 view .LVU69
 291 0060 294A     		ldr	r2, .L11+24
 292 0062 0021     		movs	r1, #0
 293 0064 0220     		movs	r0, #2
 294 0066 FFF7FEFF 		bl	show_chs_string
 295              	.LVL20:
 206:Src/main.c    ****         show_string_atype(6, 0, "asdfghjkl", 9);
 296              		.loc 1 206 9 view .LVU70
 297 006a 0A23     		movs	r3, #10
 298 006c 274A     		ldr	r2, .L11+28
 299 006e 0021     		movs	r1, #0
 300 0070 0420     		movs	r0, #4
 301 0072 FFF7FEFF 		bl	show_string_atype
 302              	.LVL21:
 207:Src/main.c    ****         HAL_Delay(3000);
 303              		.loc 1 207 9 view .LVU71
 304 0076 0923     		movs	r3, #9
 305 0078 254A     		ldr	r2, .L11+32
 306 007a 0021     		movs	r1, #0
 307 007c 0620     		movs	r0, #6
 308 007e FFF7FEFF 		bl	show_string_atype
 309              	.LVL22:
 208:Src/main.c    ****         OLED_CLS();
 310              		.loc 1 208 9 view .LVU72
 311 0082 40F6B830 		movw	r0, #3000
 312 0086 FFF7FEFF 		bl	HAL_Delay
 313              	.LVL23:
 209:Src/main.c    ****         show_drawBMP(0, 0, 7, 127, BMP1);
 314              		.loc 1 209 9 view .LVU73
 315 008a FFF7FEFF 		bl	OLED_CLS
 316              	.LVL24:
 210:Src/main.c    ****         HAL_Delay(3000);
 317              		.loc 1 210 9 view .LVU74
 318 008e 02AB     		add	r3, sp, #8
 319 0090 0093     		str	r3, [sp]
 320 0092 7F23     		movs	r3, #127
 321 0094 0722     		movs	r2, #7
 322 0096 0021     		movs	r1, #0
 323 0098 0846     		mov	r0, r1
 324 009a FFF7FEFF 		bl	show_drawBMP
 325              	.LVL25:
 211:Src/main.c    ****         OLED_CLS();
 326              		.loc 1 211 9 view .LVU75
 327 009e 40F6B830 		movw	r0, #3000
ARM GAS  C:\Users\25339\AppData\Local\Temp\cc6v9mwo.s 			page 12


 328 00a2 FFF7FEFF 		bl	HAL_Delay
 329              	.LVL26:
 212:Src/main.c    ****         display_time();
 330              		.loc 1 212 9 view .LVU76
 331 00a6 FFF7FEFF 		bl	OLED_CLS
 332              	.LVL27:
 213:Src/main.c    ****         HAL_Delay(3000);
 333              		.loc 1 213 9 view .LVU77
 334 00aa FFF7FEFF 		bl	display_time
 335              	.LVL28:
 214:Src/main.c    ****         OLED_CLS();
 336              		.loc 1 214 9 view .LVU78
 337 00ae 40F6B830 		movw	r0, #3000
 338 00b2 FFF7FEFF 		bl	HAL_Delay
 339              	.LVL29:
 215:Src/main.c    ****     }
 340              		.loc 1 215 9 view .LVU79
 341 00b6 FFF7FEFF 		bl	OLED_CLS
 342              	.LVL30:
 190:Src/main.c    ****     {
 343              		.loc 1 190 11 view .LVU80
 344              	.L9:
 190:Src/main.c    ****     {
 345              		.loc 1 190 5 view .LVU81
 195:Src/main.c    ****         {
 346              		.loc 1 195 9 view .LVU82
 195:Src/main.c    ****         {
 347              		.loc 1 195 13 is_stmt 0 view .LVU83
 348 00ba 114B     		ldr	r3, .L11+16
 349 00bc 1B78     		ldrb	r3, [r3]	@ zero_extendqisi2
 195:Src/main.c    ****         {
 350              		.loc 1 195 12 view .LVU84
 351 00be 002B     		cmp	r3, #0
 352 00c0 C9D0     		beq	.L8
 197:Src/main.c    ****             get_time(&gettime, &getdate);
 353              		.loc 1 197 13 is_stmt 1 view .LVU85
 197:Src/main.c    ****             get_time(&gettime, &getdate);
 354              		.loc 1 197 23 is_stmt 0 view .LVU86
 355 00c2 0F4B     		ldr	r3, .L11+16
 356 00c4 0022     		movs	r2, #0
 357 00c6 1A70     		strb	r2, [r3]
 198:Src/main.c    ****             /*display time format:hh/mm/ss*/
 358              		.loc 1 198 13 is_stmt 1 view .LVU87
 359 00c8 124C     		ldr	r4, .L11+36
 360 00ca 134D     		ldr	r5, .L11+40
 361 00cc 2146     		mov	r1, r4
 362 00ce 2846     		mov	r0, r5
 363 00d0 FFF7FEFF 		bl	get_time
 364              	.LVL31:
 200:Src/main.c    ****             /*display date format:yy/mm/dd*/
 365              		.loc 1 200 13 view .LVU88
 366 00d4 114E     		ldr	r6, .L11+44
 367 00d6 AB78     		ldrb	r3, [r5, #2]	@ zero_extendqisi2
 368 00d8 6A78     		ldrb	r2, [r5, #1]	@ zero_extendqisi2
 369 00da 2978     		ldrb	r1, [r5]	@ zero_extendqisi2
 370 00dc 3046     		mov	r0, r6
 371 00de FFF7FEFF 		bl	printf
ARM GAS  C:\Users\25339\AppData\Local\Temp\cc6v9mwo.s 			page 13


 372              	.LVL32:
 202:Src/main.c    ****         }
 373              		.loc 1 202 13 view .LVU89
 374 00e2 A378     		ldrb	r3, [r4, #2]	@ zero_extendqisi2
 375 00e4 6278     		ldrb	r2, [r4, #1]	@ zero_extendqisi2
 376 00e6 E178     		ldrb	r1, [r4, #3]	@ zero_extendqisi2
 377 00e8 3046     		mov	r0, r6
 378 00ea FFF7FEFF 		bl	printf
 379              	.LVL33:
 380 00ee B2E7     		b	.L8
 381              	.L12:
 382              		.align	2
 383              	.L11:
 384 00f0 00000000 		.word	.LANCHOR0
 385 00f4 00000000 		.word	uart1_rxbuffer
 386 00f8 00000000 		.word	huart1
 387 00fc 00000000 		.word	htim6
 388 0100 00000000 		.word	g_1s_flag
 389 0104 14000000 		.word	.LC2
 390 0108 2C000000 		.word	.LC3
 391 010c 40000000 		.word	.LC4
 392 0110 4C000000 		.word	.LC5
 393 0114 00000000 		.word	getdate
 394 0118 00000000 		.word	gettime
 395 011c 00000000 		.word	.LC1
 396              		.cfi_endproc
 397              	.LFE69:
 399              		.section	.text.Error_Handler,"ax",%progbits
 400              		.align	1
 401              		.global	Error_Handler
 402              		.syntax unified
 403              		.thumb
 404              		.thumb_func
 405              		.fpu softvfp
 407              	Error_Handler:
 408              	.LFB71:
 264:Src/main.c    **** 
 265:Src/main.c    **** /* USER CODE BEGIN 4 */
 266:Src/main.c    **** 
 267:Src/main.c    **** /* USER CODE END 4 */
 268:Src/main.c    **** 
 269:Src/main.c    **** /**
 270:Src/main.c    ****   * @brief  This function is executed in case of error occurrence.
 271:Src/main.c    ****   * @retval None
 272:Src/main.c    ****   */
 273:Src/main.c    **** void Error_Handler(void)
 274:Src/main.c    **** {
 409              		.loc 1 274 1 view -0
 410              		.cfi_startproc
 411              		@ args = 0, pretend = 0, frame = 0
 412              		@ frame_needed = 0, uses_anonymous_args = 0
 413              		@ link register save eliminated.
 275:Src/main.c    ****   /* USER CODE BEGIN Error_Handler_Debug */
 276:Src/main.c    ****     /* User can add his own implementation to report the HAL error return state */
 277:Src/main.c    **** 
 278:Src/main.c    ****   /* USER CODE END Error_Handler_Debug */
 279:Src/main.c    **** }
ARM GAS  C:\Users\25339\AppData\Local\Temp\cc6v9mwo.s 			page 14


 414              		.loc 1 279 1 view .LVU91
 415 0000 7047     		bx	lr
 416              		.cfi_endproc
 417              	.LFE71:
 419              		.comm	gettime,3,4
 420              		.comm	getdate,4,4
 421              		.section	.rodata
 422              		.align	2
 423              		.set	.LANCHOR0,. + 0
 424              	.LC0:
 425 0000 00000000 		.ascii	"\000\000\000\000\000\000\000\000\000\000\000\000\000"
 425      00000000 
 425      00000000 
 425      00
 426 000d 00000000 		.ascii	"\000\000\000\000\000\000\000\000\000\000\000\000\000"
 426      00000000 
 426      00000000 
 426      00
 427 001a 00000000 		.ascii	"\000\000\000\000\000\000\000\000\000\000\000\000\000"
 427      00000000 
 427      00000000 
 427      00
 428 0027 00000000 		.ascii	"\000\000\000\000\000\000\000\000\000\000\000\000\000"
 428      00000000 
 428      00000000 
 428      00
 429 0034 00000000 		.ascii	"\000\000\000\000\000\000\000\000\000\000\000\000\000"
 429      00000000 
 429      00000000 
 429      00
 430 0041 00000000 		.ascii	"\000\000\000\000\000\000\000\000\000\000\000\000\000"
 430      00000000 
 430      00000000 
 430      00
 431 004e 00000000 		.ascii	"\000\000\000\000\000\000\000\000\000\340\370\376\377"
 431      00000000 
 431      00E0F8FE 
 431      FF
 432 005b 3FFFFFFE 		.ascii	"?\377\377\376\300\000\000\000\000\000\000\000\000\000"
 432      C0000000 
 432      00000000 
 432      0000
 433 0069 00000000 		.ascii	"\000\000\000\000\000\000\000\000\000\000\000\000\000"
 433      00000000 
 433      00000000 
 433      00
 434 0076 00000000 		.ascii	"\000\000\000\000\000\000\000\000\000\000\000\000\000"
 434      00000000 
 434      00000000 
 434      00
 435 0083 00000000 		.ascii	"\000\000\000\000\000\000\000\000\000\000\000\000\000"
 435      00000000 
 435      00000000 
 435      00
 436 0090 00000000 		.ascii	"\000\000\000\000\200\200\200\200\200\200\200\200\200"
 436      80808080 
 436      80808080 
ARM GAS  C:\Users\25339\AppData\Local\Temp\cc6v9mwo.s 			page 15


 436      80
 437 009d 00000000 		.ascii	"\000\000\000\000\000\000\000\000\000\000\000\000\000"
 437      00000000 
 437      00000000 
 437      00
 438 00aa 00000000 		.ascii	"\000\000\000\000\000\000\000\200\200\200\300\300\300"
 438      00000080 
 438      8080C0C0 
 438      C0
 439 00b7 C0C0C080 		.ascii	"\300\300\300\200\000\000\000\000\000\000\000\000\000"
 439      00000000 
 439      00000000 
 439      00
 440 00c4 00000000 		.ascii	"\000\000\000\000\000\000\000\000\000\000\000\000\000"
 440      00000000 
 440      00000000 
 440      00
 441 00d1 000000C0 		.ascii	"\000\000\000\300\374\376\377\037\017\000\000\001\037"
 441      FCFEFF1F 
 441      0F000001 
 441      1F
 442 00de 7FFFFEF0 		.ascii	"\177\377\376\360\300\000\000\000\000\000\000\000\000"
 442      C0000000 
 442      00000000 
 442      00
 443 00eb 00000000 		.ascii	"\000\000\000\000\000\000\000\000\000\000\000\000\000"
 443      00000000 
 443      00000000 
 443      00
 444 00f8 00000000 		.ascii	"\000\000\000\000\000\000\000\000\000\000\000\000\000"
 444      00000000 
 444      00000000 
 444      00
 445 0105 00000000 		.ascii	"\000\000\000\000\000\000\000\000\000\340\370\376\377"
 445      00000000 
 445      00E0F8FE 
 445      FF
 446 0112 3F0F0707 		.ascii	"?\017\007\007\007\003\003\003\007\007\007\007\007\007"
 446      07030303 
 446      07070707 
 446      0707
 447 0120 FFFFFFC0 		.ascii	"\377\377\377\300\300\340\340\360\360\360xx|<<\036\037"
 447      C0E0E0F0 
 447      F0F07878 
 447      7C3C3C1E 
 447      1F
 448 0131 1F0F0703 		.ascii	"\037\017\007\003\003\003\003\017\037?\376\374\370\300"
 448      0303030F 
 448      1F3FFEFC 
 448      F8C0
 449 013f 00000000 		.ascii	"\000\000\000\000\000\000\000\000\000\000\000\000\000"
 449      00000000 
 449      00000000 
 449      00
 450 014c 00000000 		.ascii	"\000\000\000\000\000\200\374\376\377\037\017\001\200"
 450      0080FCFE 
 450      FF1F0F01 
ARM GAS  C:\Users\25339\AppData\Local\Temp\cc6v9mwo.s 			page 16


 450      80
 451 0159 80808080 		.ascii	"\200\200\200\200\200\200\201\217\377\377\377\360\340"
 451      8080818F 
 451      FFFFFFF0 
 451      E0
 452 0166 80808080 		.ascii	"\200\200\200\200\200\200\200\200\200\200\200\200\200"
 452      80808080 
 452      80808080 
 452      80
 453 0173 80808080 		.ascii	"\200\200\200\200\200\200\200\200\200\200\000\000\000"
 453      80808080 
 453      80800000 
 453      00
 454 0180 00000000 		.ascii	"\000\000\000\000\000\000\000\000\000\000\000\000\000"
 454      00000000 
 454      00000000 
 454      00
 455 018d 00FFFFFF 		.ascii	"\000\377\377\377\000\000\000\000\000\000\000\000\000"
 455      00000000 
 455      00000000 
 455      00
 456 019a 00000000 		.ascii	"\000\000\000\000\000\000\007\007\007\003\003\001\001"
 456      00000707 
 456      07030301 
 456      01
 457 01a7 01000000 		.ascii	"\001\000\000\000\000\000\000\000\000\000\000\000\000"
 457      00000000 
 457      00000000 
 457      00
 458 01b4 00000000 		.ascii	"\000\000\000\000\000\000\000\001\007\037\377\377\374"
 458      00000001 
 458      071FFFFF 
 458      FC
 459 01c1 000000FE 		.ascii	"\000\000\000\376\376\376\374\234\034\034\034\034\034"
 459      FEFEFC9C 
 459      1C1C1C1C 
 459      1C
 460 01ce 1C1CFCFF 		.ascii	"\034\034\374\377\377?\037\037\037??\177?\023\003\003"
 460      FF3F1F1F 
 460      1F3F3F7F 
 460      3F130303 
 461 01de 03030303 		.ascii	"\003\003\003\003\003\003\177\377\377\363\003\003\003"
 461      03037FFF 
 461      FFF30303 
 461      03
 462 01eb 83C3C3E3 		.ascii	"\203\303\303\343\343\363\373\373{???\037\017\017\007"
 462      E3F3FBFB 
 462      7B3F3F3F 
 462      1F0F0F07 
 463 01fb 03030000 		.ascii	"\003\003\000\000\000\000\000\000\000\000\000\000\000"
 463      00000000 
 463      00000000 
 463      00
 464 0208 00000000 		.ascii	"\000\000\000\000\000\000\377\377\377\000\000\000\000"
 464      0000FFFF 
 464      FF000000 
 464      00
ARM GAS  C:\Users\25339\AppData\Local\Temp\cc6v9mwo.s 			page 17


 465 0215 00000000 		.ascii	"\000\000\000\000\000\000\000\000\000\000\000\000\000"
 465      00000000 
 465      00000000 
 465      00
 466 0222 00000000 		.ascii	"\000\000\000\000\000\000\000\000\000\000\000\000\000"
 466      00000000 
 466      00000000 
 466      00
 467 022f 00000000 		.ascii	"\000\000\000\000\000\000\000\000\000\000\000\000\000"
 467      00000000 
 467      00000000 
 467      00
 468 023c 0000FFFF 		.ascii	"\000\000\377\377\377\000\000\000\000\003\017??>8xx\370"
 468      FF000000 
 468      00030F3F 
 468      3F3E3878 
 468      78F8
 469 024e F0FFFFFF 		.ascii	"\360\377\377\377\347\300\300\200\000\000\000\000\000"
 469      E7C0C080 
 469      00000000 
 469      00
 470 025b 00000000 		.ascii	"\000\000\000\000\000\200\300\340\360\360\377\177\377"
 470      0080C0E0 
 470      F0F0FF7F 
 470      FF
 471 0268 FEFE9F0F 		.ascii	"\376\376\237\017\017\007\003\001\001\000\000\000\000"
 471      0F070301 
 471      01000000 
 471      00
 472 0275 00000000 		.ascii	"\000\000\000\000\000\000\000\000\000\000\000\000\000"
 472      00000000 
 472      00000000 
 472      00
 473 0282 00000000 		.ascii	"\000\000\000\000\000\000\000\000\000\000\000\000\177"
 473      00000000 
 473      00000000 
 473      7F
 474 028f FFFFF0E0 		.ascii	"\377\377\360\340\300\200\000\000\000\000\000\000\000"
 474      C0800000 
 474      00000000 
 474      00
 475 029c 00000000 		.ascii	"\000\000\000\000\000\000\000\000\000\000\000\000\000"
 475      00000000 
 475      00000000 
 475      00
 476 02a9 00000000 		.ascii	"\000\000\000\000\000\000\000\000\000\000\000\000\000"
 476      00000000 
 476      00000000 
 476      00
 477 02b6 00000080 		.ascii	"\000\000\000\200\300\340\370\377\377?\007\000\000\000"
 477      C0E0F8FF 
 477      FF3F0700 
 477      0000
 478 02c4 00000000 		.ascii	"\000\000\000\000\000\000\000\000\360\377\377\177\001"
 478      00000000 
 478      F0FFFF7F 
 478      01
ARM GAS  C:\Users\25339\AppData\Local\Temp\cc6v9mwo.s 			page 18


 479 02d1 01038787 		.ascii	"\001\003\207\207\317\337\377\376\374\374\370\374\376"
 479      CFDFFFFE 
 479      FCFCF8FC 
 479      FE
 480 02de FFFFEFC7 		.ascii	"\377\377\357\307\307\203\001\000\000\003\017\037\377"
 480      C7830100 
 480      00030F1F 
 480      FF
 481 02eb FEFCE0C0 		.ascii	"\376\374\340\300\000\000\000\000\000\000\000\000\000"
 481      00000000 
 481      00000000 
 481      00
 482 02f8 00000000 		.ascii	"\000\000\000\000\000\000\000\000\000\000\000\000\000"
 482      00000000 
 482      00000000 
 482      00
 483 0305 00000000 		.ascii	"\000\000\000\000\000\000\000\000\000\000\000\001\003"
 483      00000000 
 483      00000001 
 483      03
 484 0312 070F1F3F 		.ascii	"\007\017\037?~|\370\360\360\340\340\300\300\200\200"
 484      7E7CF8F0 
 484      F0E0E0C0 
 484      C08080
 485 0321 00000000 		.ascii	"\000\000\000\000\000\000\000\000\000\000\000\000\000"
 485      00000000 
 485      00000000 
 485      00
 486 032e 00000000 		.ascii	"\000\000\000\000\200\300\340\360\370\374~?\037\017\003"
 486      80C0E0F0 
 486      F8FC7E3F 
 486      1F0F03
 487 033d 01000000 		.ascii	"\001\000\000\000\000\000\000\000\000\000\000\000\000"
 487      00000000 
 487      00000000 
 487      00
 488 034a 00007F7F 		.ascii	"\000\000\177\177\177|>?\037\017\007\007\003\003\001"
 488      7F7C3E3F 
 488      1F0F0707 
 488      030301
 489 0359 01000000 		.ascii	"\001\000\000\000\000\001\001\003\007\017\037\037><<"
 489      00010103 
 489      070F1F1F 
 489      3E3C3C
 490 0368 7878F8F1 		.ascii	"xx\370\361\377\377\377\376\374\300\000\000\000\000\000"
 490      FFFFFFFE 
 490      FCC00000 
 490      000000
 491 0377 00000000 		.ascii	"\000\000\000\000\000\000\000\000\000\000\000\000\000"
 491      00000000 
 491      00000000 
 491      00
 492 0384 00000000 		.ascii	"\000\000\000\000\000\000\000\000\000\000\000\000\000"
 492      00000000 
 492      00000000 
 492      00
 493 0391 00000000 		.ascii	"\000\000\000\000\000\000\000\000\000\001\001\003\003"
ARM GAS  C:\Users\25339\AppData\Local\Temp\cc6v9mwo.s 			page 19


 493      00000000 
 493      00010103 
 493      03
 494 039e 070F0F0F 		.ascii	"\007\017\017\017\036>><8xx\370\374\376\376\036\016\016"
 494      1E3E3E3C 
 494      387878F8 
 494      FCFEFE1E 
 494      0E0E
 495 03b0 0F0F0F07 		.ascii	"\017\017\017\007\007\003\001\000\000\000\000\000\000"
 495      07030100 
 495      00000000 
 495      00
 496 03bd 00000000 		.ascii	"\000\000\000\000\000\000\000\000\000\000\000\000\000"
 496      00000000 
 496      00000000 
 496      00
 497 03ca 00000000 		.ascii	"\000\000\000\000\000\000\000\000\000\000\000\000\000"
 497      00000000 
 497      00000000 
 497      00
 498 03d7 00000000 		.ascii	"\000\000\000\000\000\000\000\000\000\000\000\000\000"
 498      00000000 
 498      00000000 
 498      00
 499 03e4 00000000 		.ascii	"\000\000\000\000\000\000\000\000\001\003\007\007\017"
 499      00000000 
 499      01030707 
 499      0F
 500 03f1 0F0F0000 		.ascii	"\017\017\000\000\000\000\000\000\000\000\000\000\000"
 500      00000000 
 500      00000000 
 500      00
 501 03fe 0000     		.ascii	"\000\000"
 502              		.text
 503              	.Letext0:
 504              		.file 2 "f:\\work_project\\9 2019-q4-major\\arm-none-eabi\\include\\machine\\_default_types.h"
 505              		.file 3 "f:\\work_project\\9 2019-q4-major\\arm-none-eabi\\include\\sys\\_stdint.h"
 506              		.file 4 "Drivers/CMSIS/Include/core_cm3.h"
 507              		.file 5 "Drivers/CMSIS/Device/ST/STM32F1xx/Include/system_stm32f1xx.h"
 508              		.file 6 "Drivers/CMSIS/Device/ST/STM32F1xx/Include/stm32f103xe.h"
 509              		.file 7 "Drivers/STM32F1xx_HAL_Driver/Inc/stm32f1xx_hal_def.h"
 510              		.file 8 "Drivers/STM32F1xx_HAL_Driver/Inc/stm32f1xx_hal_rcc.h"
 511              		.file 9 "Drivers/STM32F1xx_HAL_Driver/Inc/stm32f1xx_hal_rcc_ex.h"
 512              		.file 10 "Drivers/STM32F1xx_HAL_Driver/Inc/stm32f1xx_hal_dma.h"
 513              		.file 11 "Drivers/STM32F1xx_HAL_Driver/Inc/stm32f1xx_hal_i2c.h"
 514              		.file 12 "Drivers/STM32F1xx_HAL_Driver/Inc/stm32f1xx_hal_rtc.h"
 515              		.file 13 "Drivers/STM32F1xx_HAL_Driver/Inc/stm32f1xx_hal_tim.h"
 516              		.file 14 "Drivers/STM32F1xx_HAL_Driver/Inc/stm32f1xx_hal_uart.h"
 517              		.file 15 "Drivers/STM32F1xx_HAL_Driver/Inc/stm32f1xx_hal.h"
 518              		.file 16 "Inc/i2c.h"
 519              		.file 17 "Inc/rtc.h"
 520              		.file 18 "Inc/tim.h"
 521              		.file 19 "Inc/usart.h"
 522              		.file 20 "f:\\work_project\\9 2019-q4-major\\arm-none-eabi\\include\\sys\\lock.h"
 523              		.file 21 "f:\\work_project\\9 2019-q4-major\\arm-none-eabi\\include\\sys\\_types.h"
 524              		.file 22 "f:\\work_project\\9 2019-q4-major\\lib\\gcc\\arm-none-eabi\\9.2.1\\include\\stddef.h"
 525              		.file 23 "f:\\work_project\\9 2019-q4-major\\arm-none-eabi\\include\\sys\\reent.h"
ARM GAS  C:\Users\25339\AppData\Local\Temp\cc6v9mwo.s 			page 20


 526              		.file 24 "f:\\work_project\\9 2019-q4-major\\arm-none-eabi\\include\\stdio.h"
 527              		.file 25 "f:\\work_project\\9 2019-q4-major\\arm-none-eabi\\include\\stdlib.h"
 528              		.file 26 "Inc/uart1.h"
 529              		.file 27 "Inc/gpio.h"
 530              		.file 28 "Inc/oled.h"
 531              		.file 29 "Inc/display.h"
 532              		.file 30 "<built-in>"
ARM GAS  C:\Users\25339\AppData\Local\Temp\cc6v9mwo.s 			page 21

