ARM GAS  C:\Users\25339\AppData\Local\Temp\ccNjsSLI.s 			page 1


   1              		.cpu cortex-m3
   2              		.eabi_attribute 20, 1
   3              		.eabi_attribute 21, 1
   4              		.eabi_attribute 23, 3
   5              		.eabi_attribute 24, 1
   6              		.eabi_attribute 25, 1
   7              		.eabi_attribute 26, 1
   8              		.eabi_attribute 30, 1
   9              		.eabi_attribute 34, 1
  10              		.eabi_attribute 18, 4
  11              		.file	"u8g2_font.c"
  12              		.text
  13              	.Ltext0:
  14              		.cfi_sections	.debug_frame
  15              		.section	.text.u8g2_font_get_byte,"ax",%progbits
  16              		.align	1
  17              		.arch armv7-m
  18              		.syntax unified
  19              		.thumb
  20              		.thumb_func
  21              		.fpu softvfp
  23              	u8g2_font_get_byte:
  24              	.LVL0:
  25              	.LFB0:
  26              		.file 1 "Drivers/u8g2_csrc/u8g2_font.c"
   1:Drivers/u8g2_csrc/u8g2_font.c **** /*
   2:Drivers/u8g2_csrc/u8g2_font.c **** 
   3:Drivers/u8g2_csrc/u8g2_font.c ****   u8g2_font.c
   4:Drivers/u8g2_csrc/u8g2_font.c **** 
   5:Drivers/u8g2_csrc/u8g2_font.c ****   Universal 8bit Graphics Library (https://github.com/olikraus/u8g2/)
   6:Drivers/u8g2_csrc/u8g2_font.c **** 
   7:Drivers/u8g2_csrc/u8g2_font.c ****   Copyright (c) 2016, olikraus@gmail.com
   8:Drivers/u8g2_csrc/u8g2_font.c ****   All rights reserved.
   9:Drivers/u8g2_csrc/u8g2_font.c **** 
  10:Drivers/u8g2_csrc/u8g2_font.c ****   Redistribution and use in source and binary forms, with or without modification, 
  11:Drivers/u8g2_csrc/u8g2_font.c ****   are permitted provided that the following conditions are met:
  12:Drivers/u8g2_csrc/u8g2_font.c **** 
  13:Drivers/u8g2_csrc/u8g2_font.c ****   * Redistributions of source code must retain the above copyright notice, this list 
  14:Drivers/u8g2_csrc/u8g2_font.c ****     of conditions and the following disclaimer.
  15:Drivers/u8g2_csrc/u8g2_font.c ****     
  16:Drivers/u8g2_csrc/u8g2_font.c ****   * Redistributions in binary form must reproduce the above copyright notice, this 
  17:Drivers/u8g2_csrc/u8g2_font.c ****     list of conditions and the following disclaimer in the documentation and/or other 
  18:Drivers/u8g2_csrc/u8g2_font.c ****     materials provided with the distribution.
  19:Drivers/u8g2_csrc/u8g2_font.c **** 
  20:Drivers/u8g2_csrc/u8g2_font.c ****   THIS SOFTWARE IS PROVIDED BY THE COPYRIGHT HOLDERS AND 
  21:Drivers/u8g2_csrc/u8g2_font.c ****   CONTRIBUTORS "AS IS" AND ANY EXPRESS OR IMPLIED WARRANTIES, 
  22:Drivers/u8g2_csrc/u8g2_font.c ****   INCLUDING, BUT NOT LIMITED TO, THE IMPLIED WARRANTIES OF 
  23:Drivers/u8g2_csrc/u8g2_font.c ****   MERCHANTABILITY AND FITNESS FOR A PARTICULAR PURPOSE ARE 
  24:Drivers/u8g2_csrc/u8g2_font.c ****   DISCLAIMED. IN NO EVENT SHALL THE COPYRIGHT HOLDER OR 
  25:Drivers/u8g2_csrc/u8g2_font.c ****   CONTRIBUTORS BE LIABLE FOR ANY DIRECT, INDIRECT, INCIDENTAL, 
  26:Drivers/u8g2_csrc/u8g2_font.c ****   SPECIAL, EXEMPLARY, OR CONSEQUENTIAL DAMAGES (INCLUDING, BUT 
  27:Drivers/u8g2_csrc/u8g2_font.c ****   NOT LIMITED TO, PROCUREMENT OF SUBSTITUTE GOODS OR SERVICES; 
  28:Drivers/u8g2_csrc/u8g2_font.c ****   LOSS OF USE, DATA, OR PROFITS; OR BUSINESS INTERRUPTION) HOWEVER 
  29:Drivers/u8g2_csrc/u8g2_font.c ****   CAUSED AND ON ANY THEORY OF LIABILITY, WHETHER IN CONTRACT, 
  30:Drivers/u8g2_csrc/u8g2_font.c ****   STRICT LIABILITY, OR TORT (INCLUDING NEGLIGENCE OR OTHERWISE) 
  31:Drivers/u8g2_csrc/u8g2_font.c ****   ARISING IN ANY WAY OUT OF THE USE OF THIS SOFTWARE, EVEN IF 
  32:Drivers/u8g2_csrc/u8g2_font.c ****   ADVISED OF THE POSSIBILITY OF SUCH DAMAGE.  
ARM GAS  C:\Users\25339\AppData\Local\Temp\ccNjsSLI.s 			page 2


  33:Drivers/u8g2_csrc/u8g2_font.c **** 
  34:Drivers/u8g2_csrc/u8g2_font.c **** */
  35:Drivers/u8g2_csrc/u8g2_font.c **** 
  36:Drivers/u8g2_csrc/u8g2_font.c **** #include "u8g2.h"
  37:Drivers/u8g2_csrc/u8g2_font.c **** 
  38:Drivers/u8g2_csrc/u8g2_font.c **** /* size of the font data structure, there is no struct or class... */
  39:Drivers/u8g2_csrc/u8g2_font.c **** /* this is the size for the new font format */
  40:Drivers/u8g2_csrc/u8g2_font.c **** #define U8G2_FONT_DATA_STRUCT_SIZE 23
  41:Drivers/u8g2_csrc/u8g2_font.c **** 
  42:Drivers/u8g2_csrc/u8g2_font.c **** /*
  43:Drivers/u8g2_csrc/u8g2_font.c ****   font data:
  44:Drivers/u8g2_csrc/u8g2_font.c **** 
  45:Drivers/u8g2_csrc/u8g2_font.c ****   offset	bytes	description
  46:Drivers/u8g2_csrc/u8g2_font.c ****   0		1		glyph_cnt		number of glyphs
  47:Drivers/u8g2_csrc/u8g2_font.c ****   1		1		bbx_mode	0: proportional, 1: common height, 2: monospace, 3: multiple of 8
  48:Drivers/u8g2_csrc/u8g2_font.c ****   2		1		bits_per_0	glyph rle parameter
  49:Drivers/u8g2_csrc/u8g2_font.c ****   3		1		bits_per_1	glyph rle parameter
  50:Drivers/u8g2_csrc/u8g2_font.c **** 
  51:Drivers/u8g2_csrc/u8g2_font.c ****   4		1		bits_per_char_width		glyph rle parameter
  52:Drivers/u8g2_csrc/u8g2_font.c ****   5		1		bits_per_char_height	glyph rle parameter
  53:Drivers/u8g2_csrc/u8g2_font.c ****   6		1		bits_per_char_x		glyph rle parameter
  54:Drivers/u8g2_csrc/u8g2_font.c ****   7		1		bits_per_char_y		glyph rle parameter
  55:Drivers/u8g2_csrc/u8g2_font.c ****   8		1		bits_per_delta_x		glyph rle parameter
  56:Drivers/u8g2_csrc/u8g2_font.c **** 
  57:Drivers/u8g2_csrc/u8g2_font.c ****   9		1		max_char_width
  58:Drivers/u8g2_csrc/u8g2_font.c ****   10		1		max_char_height
  59:Drivers/u8g2_csrc/u8g2_font.c ****   11		1		x offset
  60:Drivers/u8g2_csrc/u8g2_font.c ****   12		1		y offset (descent)
  61:Drivers/u8g2_csrc/u8g2_font.c ****   
  62:Drivers/u8g2_csrc/u8g2_font.c ****   13		1		ascent (capital A)
  63:Drivers/u8g2_csrc/u8g2_font.c ****   14		1		descent (lower g)
  64:Drivers/u8g2_csrc/u8g2_font.c ****   15		1		ascent '('
  65:Drivers/u8g2_csrc/u8g2_font.c ****   16		1		descent ')'
  66:Drivers/u8g2_csrc/u8g2_font.c ****   
  67:Drivers/u8g2_csrc/u8g2_font.c ****   17		1		start pos 'A' high byte
  68:Drivers/u8g2_csrc/u8g2_font.c ****   18		1		start pos 'A' low byte
  69:Drivers/u8g2_csrc/u8g2_font.c **** 
  70:Drivers/u8g2_csrc/u8g2_font.c ****   19		1		start pos 'a' high byte
  71:Drivers/u8g2_csrc/u8g2_font.c ****   20		1		start pos 'a' low byte
  72:Drivers/u8g2_csrc/u8g2_font.c **** 
  73:Drivers/u8g2_csrc/u8g2_font.c ****   21		1		start pos unicode high byte
  74:Drivers/u8g2_csrc/u8g2_font.c ****   22		1		start pos unicode low byte
  75:Drivers/u8g2_csrc/u8g2_font.c **** 
  76:Drivers/u8g2_csrc/u8g2_font.c ****   Font build mode, 0: proportional, 1: common height, 2: monospace, 3: multiple of 8
  77:Drivers/u8g2_csrc/u8g2_font.c **** 
  78:Drivers/u8g2_csrc/u8g2_font.c ****   Font build mode 0:		
  79:Drivers/u8g2_csrc/u8g2_font.c ****     - "t"
  80:Drivers/u8g2_csrc/u8g2_font.c ****     - Ref height mode: U8G2_FONT_HEIGHT_MODE_TEXT, U8G2_FONT_HEIGHT_MODE_XTEXT or U8G2_FONT_HEIGHT_
  81:Drivers/u8g2_csrc/u8g2_font.c ****     - use in transparent mode only (does not look good in solid mode)
  82:Drivers/u8g2_csrc/u8g2_font.c ****     - most compact format
  83:Drivers/u8g2_csrc/u8g2_font.c ****     - different font heights possible
  84:Drivers/u8g2_csrc/u8g2_font.c ****     
  85:Drivers/u8g2_csrc/u8g2_font.c ****   Font build mode 1:		
  86:Drivers/u8g2_csrc/u8g2_font.c ****     - "h"
  87:Drivers/u8g2_csrc/u8g2_font.c ****     - Ref height mode: U8G2_FONT_HEIGHT_MODE_ALL
  88:Drivers/u8g2_csrc/u8g2_font.c ****     - transparent or solid mode
  89:Drivers/u8g2_csrc/u8g2_font.c ****     - The height of the glyphs depend on the largest glyph in the font. This means font height depe
ARM GAS  C:\Users\25339\AppData\Local\Temp\ccNjsSLI.s 			page 3


  90:Drivers/u8g2_csrc/u8g2_font.c **** 
  91:Drivers/u8g2_csrc/u8g2_font.c **** */
  92:Drivers/u8g2_csrc/u8g2_font.c **** 
  93:Drivers/u8g2_csrc/u8g2_font.c **** /* use case: What is the width and the height of the minimal box into which string s fints? */
  94:Drivers/u8g2_csrc/u8g2_font.c **** void u8g2_font_GetStrSize(const void *font, const char *s, u8g2_uint_t *width, u8g2_uint_t *height)
  95:Drivers/u8g2_csrc/u8g2_font.c **** void u8g2_font_GetStrSizeP(const void *font, const char *s, u8g2_uint_t *width, u8g2_uint_t *height
  96:Drivers/u8g2_csrc/u8g2_font.c **** 
  97:Drivers/u8g2_csrc/u8g2_font.c **** /* use case: lower left edge of a minimal box is known, what is the correct x, y position for the s
  98:Drivers/u8g2_csrc/u8g2_font.c **** void u8g2_font_AdjustXYToDraw(const void *font, const char *s, u8g2_uint_t *x, u8g2_uint_t *y);
  99:Drivers/u8g2_csrc/u8g2_font.c **** void u8g2_font_AdjustXYToDrawP(const void *font, const char *s, u8g2_uint_t *x, u8g2_uint_t *y);
 100:Drivers/u8g2_csrc/u8g2_font.c **** 
 101:Drivers/u8g2_csrc/u8g2_font.c **** /* use case: Baseline origin known, return minimal box */
 102:Drivers/u8g2_csrc/u8g2_font.c **** void u8g2_font_GetStrMinBox(u8g2_t *u8g2, const void *font, const char *s, u8g2_uint_t *x, u8g2_uin
 103:Drivers/u8g2_csrc/u8g2_font.c **** 
 104:Drivers/u8g2_csrc/u8g2_font.c **** /* procedures */
 105:Drivers/u8g2_csrc/u8g2_font.c **** 
 106:Drivers/u8g2_csrc/u8g2_font.c **** /*========================================================================*/
 107:Drivers/u8g2_csrc/u8g2_font.c **** /* low level byte and word access */
 108:Drivers/u8g2_csrc/u8g2_font.c **** 
 109:Drivers/u8g2_csrc/u8g2_font.c **** /* removed NOINLINE, because it leads to smaller code, might also be faster */
 110:Drivers/u8g2_csrc/u8g2_font.c **** //static uint8_t u8g2_font_get_byte(const uint8_t *font, uint8_t offset) U8G2_NOINLINE;
 111:Drivers/u8g2_csrc/u8g2_font.c **** static uint8_t u8g2_font_get_byte(const uint8_t *font, uint8_t offset)
 112:Drivers/u8g2_csrc/u8g2_font.c **** {
  27              		.loc 1 112 1 view -0
  28              		.cfi_startproc
  29              		@ args = 0, pretend = 0, frame = 0
  30              		@ frame_needed = 0, uses_anonymous_args = 0
  31              		@ link register save eliminated.
 113:Drivers/u8g2_csrc/u8g2_font.c ****   font += offset;
  32              		.loc 1 113 3 view .LVU1
 114:Drivers/u8g2_csrc/u8g2_font.c ****   return u8x8_pgm_read( font );  
  33              		.loc 1 114 3 view .LVU2
 115:Drivers/u8g2_csrc/u8g2_font.c **** }
  34              		.loc 1 115 1 is_stmt 0 view .LVU3
  35 0000 405C     		ldrb	r0, [r0, r1]	@ zero_extendqisi2
  36              	.LVL1:
  37              		.loc 1 115 1 view .LVU4
  38 0002 7047     		bx	lr
  39              		.cfi_endproc
  40              	.LFE0:
  42              		.section	.text.u8g2_font_get_word,"ax",%progbits
  43              		.align	1
  44              		.syntax unified
  45              		.thumb
  46              		.thumb_func
  47              		.fpu softvfp
  49              	u8g2_font_get_word:
  50              	.LVL2:
  51              	.LFB1:
 116:Drivers/u8g2_csrc/u8g2_font.c **** 
 117:Drivers/u8g2_csrc/u8g2_font.c **** static uint16_t u8g2_font_get_word(const uint8_t *font, uint8_t offset) U8G2_NOINLINE; 
 118:Drivers/u8g2_csrc/u8g2_font.c **** static uint16_t u8g2_font_get_word(const uint8_t *font, uint8_t offset)
 119:Drivers/u8g2_csrc/u8g2_font.c **** {
  52              		.loc 1 119 1 is_stmt 1 view -0
  53              		.cfi_startproc
  54              		@ args = 0, pretend = 0, frame = 0
  55              		@ frame_needed = 0, uses_anonymous_args = 0
ARM GAS  C:\Users\25339\AppData\Local\Temp\ccNjsSLI.s 			page 4


  56              		@ link register save eliminated.
 120:Drivers/u8g2_csrc/u8g2_font.c ****     uint16_t pos;
  57              		.loc 1 120 5 view .LVU6
 121:Drivers/u8g2_csrc/u8g2_font.c ****     font += offset;
  58              		.loc 1 121 5 view .LVU7
  59              		.loc 1 121 10 is_stmt 0 view .LVU8
  60 0000 4218     		adds	r2, r0, r1
  61              	.LVL3:
 122:Drivers/u8g2_csrc/u8g2_font.c ****     pos = u8x8_pgm_read( font );
  62              		.loc 1 122 5 is_stmt 1 view .LVU9
  63              		.loc 1 122 9 is_stmt 0 view .LVU10
  64 0002 435C     		ldrb	r3, [r0, r1]	@ zero_extendqisi2
  65              	.LVL4:
 123:Drivers/u8g2_csrc/u8g2_font.c ****     font++;
  66              		.loc 1 123 5 is_stmt 1 view .LVU11
 124:Drivers/u8g2_csrc/u8g2_font.c ****     pos <<= 8;
  67              		.loc 1 124 5 view .LVU12
 125:Drivers/u8g2_csrc/u8g2_font.c ****     pos += u8x8_pgm_read( font);
  68              		.loc 1 125 5 view .LVU13
  69              		.loc 1 125 12 is_stmt 0 view .LVU14
  70 0004 5078     		ldrb	r0, [r2, #1]	@ zero_extendqisi2
  71              		.loc 1 125 9 view .LVU15
  72 0006 00EB0320 		add	r0, r0, r3, lsl #8
  73              	.LVL5:
 126:Drivers/u8g2_csrc/u8g2_font.c ****     return pos;
  74              		.loc 1 126 5 is_stmt 1 view .LVU16
 127:Drivers/u8g2_csrc/u8g2_font.c **** }
  75              		.loc 1 127 1 is_stmt 0 view .LVU17
  76 000a 80B2     		uxth	r0, r0
  77              		.loc 1 127 1 view .LVU18
  78 000c 7047     		bx	lr
  79              		.cfi_endproc
  80              	.LFE1:
  82              		.section	.text.u8g2_add_vector_y,"ax",%progbits
  83              		.align	1
  84              		.syntax unified
  85              		.thumb
  86              		.thumb_func
  87              		.fpu softvfp
  89              	u8g2_add_vector_y:
  90              	.LVL6:
  91              	.LFB11:
 128:Drivers/u8g2_csrc/u8g2_font.c **** 
 129:Drivers/u8g2_csrc/u8g2_font.c **** /*========================================================================*/
 130:Drivers/u8g2_csrc/u8g2_font.c **** /* new font format */
 131:Drivers/u8g2_csrc/u8g2_font.c **** void u8g2_read_font_info(u8g2_font_info_t *font_info, const uint8_t *font)
 132:Drivers/u8g2_csrc/u8g2_font.c **** {
 133:Drivers/u8g2_csrc/u8g2_font.c ****   /* offset 0 */
 134:Drivers/u8g2_csrc/u8g2_font.c ****   font_info->glyph_cnt = u8g2_font_get_byte(font, 0);
 135:Drivers/u8g2_csrc/u8g2_font.c ****   font_info->bbx_mode = u8g2_font_get_byte(font, 1);
 136:Drivers/u8g2_csrc/u8g2_font.c ****   font_info->bits_per_0 = u8g2_font_get_byte(font, 2);
 137:Drivers/u8g2_csrc/u8g2_font.c ****   font_info->bits_per_1 = u8g2_font_get_byte(font, 3);
 138:Drivers/u8g2_csrc/u8g2_font.c ****   
 139:Drivers/u8g2_csrc/u8g2_font.c ****   /* offset 4 */
 140:Drivers/u8g2_csrc/u8g2_font.c ****   font_info->bits_per_char_width = u8g2_font_get_byte(font, 4);
 141:Drivers/u8g2_csrc/u8g2_font.c ****   font_info->bits_per_char_height = u8g2_font_get_byte(font, 5);
 142:Drivers/u8g2_csrc/u8g2_font.c ****   font_info->bits_per_char_x = u8g2_font_get_byte(font, 6);
ARM GAS  C:\Users\25339\AppData\Local\Temp\ccNjsSLI.s 			page 5


 143:Drivers/u8g2_csrc/u8g2_font.c ****   font_info->bits_per_char_y = u8g2_font_get_byte(font, 7);
 144:Drivers/u8g2_csrc/u8g2_font.c ****   font_info->bits_per_delta_x = u8g2_font_get_byte(font, 8);
 145:Drivers/u8g2_csrc/u8g2_font.c ****   
 146:Drivers/u8g2_csrc/u8g2_font.c ****   /* offset 9 */
 147:Drivers/u8g2_csrc/u8g2_font.c ****   font_info->max_char_width = u8g2_font_get_byte(font, 9);
 148:Drivers/u8g2_csrc/u8g2_font.c ****   font_info->max_char_height = u8g2_font_get_byte(font, 10);
 149:Drivers/u8g2_csrc/u8g2_font.c ****   font_info->x_offset = u8g2_font_get_byte(font, 11);
 150:Drivers/u8g2_csrc/u8g2_font.c ****   font_info->y_offset = u8g2_font_get_byte(font, 12);
 151:Drivers/u8g2_csrc/u8g2_font.c ****   
 152:Drivers/u8g2_csrc/u8g2_font.c ****   /* offset 13 */
 153:Drivers/u8g2_csrc/u8g2_font.c ****   font_info->ascent_A = u8g2_font_get_byte(font, 13);
 154:Drivers/u8g2_csrc/u8g2_font.c ****   font_info->descent_g = u8g2_font_get_byte(font, 14);
 155:Drivers/u8g2_csrc/u8g2_font.c ****   font_info->ascent_para = u8g2_font_get_byte(font, 15);
 156:Drivers/u8g2_csrc/u8g2_font.c ****   font_info->descent_para = u8g2_font_get_byte(font, 16);
 157:Drivers/u8g2_csrc/u8g2_font.c ****   
 158:Drivers/u8g2_csrc/u8g2_font.c ****   /* offset 17 */
 159:Drivers/u8g2_csrc/u8g2_font.c ****   font_info->start_pos_upper_A = u8g2_font_get_word(font, 17);
 160:Drivers/u8g2_csrc/u8g2_font.c ****   font_info->start_pos_lower_a = u8g2_font_get_word(font, 19); 
 161:Drivers/u8g2_csrc/u8g2_font.c ****   
 162:Drivers/u8g2_csrc/u8g2_font.c ****   /* offset 21 */
 163:Drivers/u8g2_csrc/u8g2_font.c **** #ifdef U8G2_WITH_UNICODE
 164:Drivers/u8g2_csrc/u8g2_font.c ****   font_info->start_pos_unicode = u8g2_font_get_word(font, 21); 
 165:Drivers/u8g2_csrc/u8g2_font.c **** #endif
 166:Drivers/u8g2_csrc/u8g2_font.c **** }
 167:Drivers/u8g2_csrc/u8g2_font.c **** 
 168:Drivers/u8g2_csrc/u8g2_font.c **** 
 169:Drivers/u8g2_csrc/u8g2_font.c **** /* calculate the overall length of the font, only used to create the picture for the google wiki */
 170:Drivers/u8g2_csrc/u8g2_font.c **** size_t u8g2_GetFontSize(const uint8_t *font_arg)
 171:Drivers/u8g2_csrc/u8g2_font.c **** {
 172:Drivers/u8g2_csrc/u8g2_font.c ****   uint16_t e;
 173:Drivers/u8g2_csrc/u8g2_font.c ****   const uint8_t *font = font_arg;
 174:Drivers/u8g2_csrc/u8g2_font.c ****   font += U8G2_FONT_DATA_STRUCT_SIZE;
 175:Drivers/u8g2_csrc/u8g2_font.c ****   
 176:Drivers/u8g2_csrc/u8g2_font.c ****   for(;;)
 177:Drivers/u8g2_csrc/u8g2_font.c ****   {
 178:Drivers/u8g2_csrc/u8g2_font.c ****     if ( u8x8_pgm_read( font + 1 ) == 0 )
 179:Drivers/u8g2_csrc/u8g2_font.c ****       break;
 180:Drivers/u8g2_csrc/u8g2_font.c ****     font += u8x8_pgm_read( font + 1 );
 181:Drivers/u8g2_csrc/u8g2_font.c ****   }
 182:Drivers/u8g2_csrc/u8g2_font.c ****   
 183:Drivers/u8g2_csrc/u8g2_font.c ****   /* continue with unicode section */
 184:Drivers/u8g2_csrc/u8g2_font.c ****   font += 2;
 185:Drivers/u8g2_csrc/u8g2_font.c **** 
 186:Drivers/u8g2_csrc/u8g2_font.c ****   /* skip unicode lookup table */
 187:Drivers/u8g2_csrc/u8g2_font.c ****   font += u8g2_font_get_word(font, 0);
 188:Drivers/u8g2_csrc/u8g2_font.c ****   
 189:Drivers/u8g2_csrc/u8g2_font.c ****   for(;;)
 190:Drivers/u8g2_csrc/u8g2_font.c ****   {
 191:Drivers/u8g2_csrc/u8g2_font.c ****     e = u8x8_pgm_read( font );
 192:Drivers/u8g2_csrc/u8g2_font.c ****     e <<= 8;
 193:Drivers/u8g2_csrc/u8g2_font.c ****     e |= u8x8_pgm_read( font + 1 );
 194:Drivers/u8g2_csrc/u8g2_font.c ****     if ( e == 0 )
 195:Drivers/u8g2_csrc/u8g2_font.c ****       break;
 196:Drivers/u8g2_csrc/u8g2_font.c ****     font += u8x8_pgm_read( font + 2 );    
 197:Drivers/u8g2_csrc/u8g2_font.c ****   }
 198:Drivers/u8g2_csrc/u8g2_font.c ****   
 199:Drivers/u8g2_csrc/u8g2_font.c ****   return (font - font_arg) + 2;
ARM GAS  C:\Users\25339\AppData\Local\Temp\ccNjsSLI.s 			page 6


 200:Drivers/u8g2_csrc/u8g2_font.c **** }
 201:Drivers/u8g2_csrc/u8g2_font.c **** 
 202:Drivers/u8g2_csrc/u8g2_font.c **** /*========================================================================*/
 203:Drivers/u8g2_csrc/u8g2_font.c **** /* u8g2 interface, font access */
 204:Drivers/u8g2_csrc/u8g2_font.c **** 
 205:Drivers/u8g2_csrc/u8g2_font.c **** uint8_t u8g2_GetFontBBXWidth(u8g2_t *u8g2)
 206:Drivers/u8g2_csrc/u8g2_font.c **** {
 207:Drivers/u8g2_csrc/u8g2_font.c ****   return u8g2->font_info.max_char_width;		/* new font info structure */
 208:Drivers/u8g2_csrc/u8g2_font.c **** }
 209:Drivers/u8g2_csrc/u8g2_font.c **** 
 210:Drivers/u8g2_csrc/u8g2_font.c **** uint8_t u8g2_GetFontBBXHeight(u8g2_t *u8g2)
 211:Drivers/u8g2_csrc/u8g2_font.c **** {
 212:Drivers/u8g2_csrc/u8g2_font.c ****   return u8g2->font_info.max_char_height;		/* new font info structure */
 213:Drivers/u8g2_csrc/u8g2_font.c **** }
 214:Drivers/u8g2_csrc/u8g2_font.c **** 
 215:Drivers/u8g2_csrc/u8g2_font.c **** int8_t u8g2_GetFontBBXOffX(u8g2_t *u8g2) U8G2_NOINLINE;
 216:Drivers/u8g2_csrc/u8g2_font.c **** int8_t u8g2_GetFontBBXOffX(u8g2_t *u8g2)
 217:Drivers/u8g2_csrc/u8g2_font.c **** {
 218:Drivers/u8g2_csrc/u8g2_font.c ****   return u8g2->font_info.x_offset;		/* new font info structure */
 219:Drivers/u8g2_csrc/u8g2_font.c **** }
 220:Drivers/u8g2_csrc/u8g2_font.c **** 
 221:Drivers/u8g2_csrc/u8g2_font.c **** int8_t u8g2_GetFontBBXOffY(u8g2_t *u8g2) U8G2_NOINLINE;
 222:Drivers/u8g2_csrc/u8g2_font.c **** int8_t u8g2_GetFontBBXOffY(u8g2_t *u8g2)
 223:Drivers/u8g2_csrc/u8g2_font.c **** {
 224:Drivers/u8g2_csrc/u8g2_font.c ****   return u8g2->font_info.y_offset;		/* new font info structure */
 225:Drivers/u8g2_csrc/u8g2_font.c **** }
 226:Drivers/u8g2_csrc/u8g2_font.c **** 
 227:Drivers/u8g2_csrc/u8g2_font.c **** uint8_t u8g2_GetFontCapitalAHeight(u8g2_t *u8g2) U8G2_NOINLINE; 
 228:Drivers/u8g2_csrc/u8g2_font.c **** uint8_t u8g2_GetFontCapitalAHeight(u8g2_t *u8g2)
 229:Drivers/u8g2_csrc/u8g2_font.c **** {
 230:Drivers/u8g2_csrc/u8g2_font.c ****   return u8g2->font_info.ascent_A;		/* new font info structure */
 231:Drivers/u8g2_csrc/u8g2_font.c **** }
 232:Drivers/u8g2_csrc/u8g2_font.c **** 
 233:Drivers/u8g2_csrc/u8g2_font.c **** /*========================================================================*/
 234:Drivers/u8g2_csrc/u8g2_font.c **** /* glyph handling */
 235:Drivers/u8g2_csrc/u8g2_font.c **** 
 236:Drivers/u8g2_csrc/u8g2_font.c **** /* optimized */
 237:Drivers/u8g2_csrc/u8g2_font.c **** uint8_t u8g2_font_decode_get_unsigned_bits(u8g2_font_decode_t *f, uint8_t cnt) 
 238:Drivers/u8g2_csrc/u8g2_font.c **** {
 239:Drivers/u8g2_csrc/u8g2_font.c ****   uint8_t val;
 240:Drivers/u8g2_csrc/u8g2_font.c ****   uint8_t bit_pos = f->decode_bit_pos;
 241:Drivers/u8g2_csrc/u8g2_font.c ****   uint8_t bit_pos_plus_cnt;
 242:Drivers/u8g2_csrc/u8g2_font.c ****   
 243:Drivers/u8g2_csrc/u8g2_font.c ****   //val = *(f->decode_ptr);
 244:Drivers/u8g2_csrc/u8g2_font.c ****   val = u8x8_pgm_read( f->decode_ptr );  
 245:Drivers/u8g2_csrc/u8g2_font.c ****   
 246:Drivers/u8g2_csrc/u8g2_font.c ****   val >>= bit_pos;
 247:Drivers/u8g2_csrc/u8g2_font.c ****   bit_pos_plus_cnt = bit_pos;
 248:Drivers/u8g2_csrc/u8g2_font.c ****   bit_pos_plus_cnt += cnt;
 249:Drivers/u8g2_csrc/u8g2_font.c ****   if ( bit_pos_plus_cnt >= 8 )
 250:Drivers/u8g2_csrc/u8g2_font.c ****   {
 251:Drivers/u8g2_csrc/u8g2_font.c ****     uint8_t s = 8;
 252:Drivers/u8g2_csrc/u8g2_font.c ****     s -= bit_pos;
 253:Drivers/u8g2_csrc/u8g2_font.c ****     f->decode_ptr++;
 254:Drivers/u8g2_csrc/u8g2_font.c ****     //val |= *(f->decode_ptr) << (8-bit_pos);
 255:Drivers/u8g2_csrc/u8g2_font.c ****     val |= u8x8_pgm_read( f->decode_ptr ) << (s);
 256:Drivers/u8g2_csrc/u8g2_font.c ****     //bit_pos -= 8;
ARM GAS  C:\Users\25339\AppData\Local\Temp\ccNjsSLI.s 			page 7


 257:Drivers/u8g2_csrc/u8g2_font.c ****     bit_pos_plus_cnt -= 8;
 258:Drivers/u8g2_csrc/u8g2_font.c ****   }
 259:Drivers/u8g2_csrc/u8g2_font.c ****   val &= (1U<<cnt)-1;
 260:Drivers/u8g2_csrc/u8g2_font.c ****   //bit_pos += cnt;
 261:Drivers/u8g2_csrc/u8g2_font.c ****   
 262:Drivers/u8g2_csrc/u8g2_font.c ****   f->decode_bit_pos = bit_pos_plus_cnt;
 263:Drivers/u8g2_csrc/u8g2_font.c ****   return val;
 264:Drivers/u8g2_csrc/u8g2_font.c **** }
 265:Drivers/u8g2_csrc/u8g2_font.c **** 
 266:Drivers/u8g2_csrc/u8g2_font.c **** 
 267:Drivers/u8g2_csrc/u8g2_font.c **** /*
 268:Drivers/u8g2_csrc/u8g2_font.c ****     2 bit --> cnt = 2
 269:Drivers/u8g2_csrc/u8g2_font.c ****       -2,-1,0. 1
 270:Drivers/u8g2_csrc/u8g2_font.c **** 
 271:Drivers/u8g2_csrc/u8g2_font.c ****     3 bit --> cnt = 3
 272:Drivers/u8g2_csrc/u8g2_font.c ****       -2,-1,0. 1
 273:Drivers/u8g2_csrc/u8g2_font.c ****       -4,-3,-2,-1,0,1,2,3
 274:Drivers/u8g2_csrc/u8g2_font.c **** 
 275:Drivers/u8g2_csrc/u8g2_font.c ****       if ( x < 0 )
 276:Drivers/u8g2_csrc/u8g2_font.c **** 	r = bits(x-1)+1;
 277:Drivers/u8g2_csrc/u8g2_font.c ****     else
 278:Drivers/u8g2_csrc/u8g2_font.c **** 	r = bits(x)+1;
 279:Drivers/u8g2_csrc/u8g2_font.c **** 
 280:Drivers/u8g2_csrc/u8g2_font.c **** */
 281:Drivers/u8g2_csrc/u8g2_font.c **** /* optimized */
 282:Drivers/u8g2_csrc/u8g2_font.c **** int8_t u8g2_font_decode_get_signed_bits(u8g2_font_decode_t *f, uint8_t cnt)
 283:Drivers/u8g2_csrc/u8g2_font.c **** {
 284:Drivers/u8g2_csrc/u8g2_font.c ****   int8_t v, d;
 285:Drivers/u8g2_csrc/u8g2_font.c ****   v = (int8_t)u8g2_font_decode_get_unsigned_bits(f, cnt);
 286:Drivers/u8g2_csrc/u8g2_font.c ****   d = 1;
 287:Drivers/u8g2_csrc/u8g2_font.c ****   cnt--;
 288:Drivers/u8g2_csrc/u8g2_font.c ****   d <<= cnt;
 289:Drivers/u8g2_csrc/u8g2_font.c ****   v -= d;
 290:Drivers/u8g2_csrc/u8g2_font.c ****   return v;
 291:Drivers/u8g2_csrc/u8g2_font.c ****   //return (int8_t)u8g2_font_decode_get_unsigned_bits(f, cnt) - ((1<<cnt)>>1);
 292:Drivers/u8g2_csrc/u8g2_font.c **** }
 293:Drivers/u8g2_csrc/u8g2_font.c **** 
 294:Drivers/u8g2_csrc/u8g2_font.c **** 
 295:Drivers/u8g2_csrc/u8g2_font.c **** #ifdef U8G2_WITH_FONT_ROTATION
 296:Drivers/u8g2_csrc/u8g2_font.c **** static u8g2_uint_t u8g2_add_vector_y(u8g2_uint_t dy, int8_t x, int8_t y, uint8_t dir) U8G2_NOINLINE
 297:Drivers/u8g2_csrc/u8g2_font.c **** static u8g2_uint_t u8g2_add_vector_y(u8g2_uint_t dy, int8_t x, int8_t y, uint8_t dir)
 298:Drivers/u8g2_csrc/u8g2_font.c **** {
  92              		.loc 1 298 1 is_stmt 1 view -0
  93              		.cfi_startproc
  94              		@ args = 0, pretend = 0, frame = 0
  95              		@ frame_needed = 0, uses_anonymous_args = 0
  96              		@ link register save eliminated.
 299:Drivers/u8g2_csrc/u8g2_font.c ****   switch(dir)
  97              		.loc 1 299 3 view .LVU20
  98 0000 012B     		cmp	r3, #1
  99 0002 08D0     		beq	.L4
 100 0004 022B     		cmp	r3, #2
 101 0006 09D0     		beq	.L5
 102 0008 13B1     		cbz	r3, .L8
 300:Drivers/u8g2_csrc/u8g2_font.c ****   {
 301:Drivers/u8g2_csrc/u8g2_font.c ****     case 0:
 302:Drivers/u8g2_csrc/u8g2_font.c ****       dy += y;
ARM GAS  C:\Users\25339\AppData\Local\Temp\ccNjsSLI.s 			page 8


 303:Drivers/u8g2_csrc/u8g2_font.c ****       break;
 304:Drivers/u8g2_csrc/u8g2_font.c ****     case 1:
 305:Drivers/u8g2_csrc/u8g2_font.c ****       dy += x;
 306:Drivers/u8g2_csrc/u8g2_font.c ****       break;
 307:Drivers/u8g2_csrc/u8g2_font.c ****     case 2:
 308:Drivers/u8g2_csrc/u8g2_font.c ****       dy -= y;
 309:Drivers/u8g2_csrc/u8g2_font.c ****       break;
 310:Drivers/u8g2_csrc/u8g2_font.c ****     default:
 311:Drivers/u8g2_csrc/u8g2_font.c ****       dy -= x;
 103              		.loc 1 311 7 view .LVU21
 104              		.loc 1 311 10 is_stmt 0 view .LVU22
 105 000a 401A     		subs	r0, r0, r1
 106              	.LVL7:
 107              		.loc 1 311 10 view .LVU23
 108 000c C0B2     		uxtb	r0, r0
 109              	.LVL8:
 312:Drivers/u8g2_csrc/u8g2_font.c ****       break;      
 110              		.loc 1 312 7 is_stmt 1 view .LVU24
 313:Drivers/u8g2_csrc/u8g2_font.c ****   }
 314:Drivers/u8g2_csrc/u8g2_font.c ****   return dy;
 111              		.loc 1 314 3 view .LVU25
 315:Drivers/u8g2_csrc/u8g2_font.c **** }
 112              		.loc 1 315 1 is_stmt 0 view .LVU26
 113 000e 7047     		bx	lr
 114              	.L8:
 302:Drivers/u8g2_csrc/u8g2_font.c ****       break;
 115              		.loc 1 302 7 is_stmt 1 view .LVU27
 302:Drivers/u8g2_csrc/u8g2_font.c ****       break;
 116              		.loc 1 302 10 is_stmt 0 view .LVU28
 117 0010 1044     		add	r0, r0, r2
 118              	.LVL9:
 302:Drivers/u8g2_csrc/u8g2_font.c ****       break;
 119              		.loc 1 302 10 view .LVU29
 120 0012 C0B2     		uxtb	r0, r0
 121              	.LVL10:
 303:Drivers/u8g2_csrc/u8g2_font.c ****     case 1:
 122              		.loc 1 303 7 is_stmt 1 view .LVU30
 123 0014 7047     		bx	lr
 124              	.L4:
 305:Drivers/u8g2_csrc/u8g2_font.c ****       break;
 125              		.loc 1 305 7 view .LVU31
 305:Drivers/u8g2_csrc/u8g2_font.c ****       break;
 126              		.loc 1 305 10 is_stmt 0 view .LVU32
 127 0016 0844     		add	r0, r0, r1
 128              	.LVL11:
 305:Drivers/u8g2_csrc/u8g2_font.c ****       break;
 129              		.loc 1 305 10 view .LVU33
 130 0018 C0B2     		uxtb	r0, r0
 131              	.LVL12:
 306:Drivers/u8g2_csrc/u8g2_font.c ****     case 2:
 132              		.loc 1 306 7 is_stmt 1 view .LVU34
 133 001a 7047     		bx	lr
 134              	.L5:
 308:Drivers/u8g2_csrc/u8g2_font.c ****       break;
 135              		.loc 1 308 7 view .LVU35
 308:Drivers/u8g2_csrc/u8g2_font.c ****       break;
 136              		.loc 1 308 10 is_stmt 0 view .LVU36
ARM GAS  C:\Users\25339\AppData\Local\Temp\ccNjsSLI.s 			page 9


 137 001c 801A     		subs	r0, r0, r2
 138              	.LVL13:
 308:Drivers/u8g2_csrc/u8g2_font.c ****       break;
 139              		.loc 1 308 10 view .LVU37
 140 001e C0B2     		uxtb	r0, r0
 141              	.LVL14:
 309:Drivers/u8g2_csrc/u8g2_font.c ****     default:
 142              		.loc 1 309 7 is_stmt 1 view .LVU38
 143 0020 7047     		bx	lr
 144              		.cfi_endproc
 145              	.LFE11:
 147              		.section	.text.u8g2_add_vector_x,"ax",%progbits
 148              		.align	1
 149              		.syntax unified
 150              		.thumb
 151              		.thumb_func
 152              		.fpu softvfp
 154              	u8g2_add_vector_x:
 155              	.LVL15:
 156              	.LFB12:
 316:Drivers/u8g2_csrc/u8g2_font.c **** 
 317:Drivers/u8g2_csrc/u8g2_font.c **** static u8g2_uint_t u8g2_add_vector_x(u8g2_uint_t dx, int8_t x, int8_t y, uint8_t dir) U8G2_NOINLINE
 318:Drivers/u8g2_csrc/u8g2_font.c **** static u8g2_uint_t u8g2_add_vector_x(u8g2_uint_t dx, int8_t x, int8_t y, uint8_t dir)
 319:Drivers/u8g2_csrc/u8g2_font.c **** {
 157              		.loc 1 319 1 view -0
 158              		.cfi_startproc
 159              		@ args = 0, pretend = 0, frame = 0
 160              		@ frame_needed = 0, uses_anonymous_args = 0
 161              		@ link register save eliminated.
 320:Drivers/u8g2_csrc/u8g2_font.c ****   switch(dir)
 162              		.loc 1 320 3 view .LVU40
 163 0000 012B     		cmp	r3, #1
 164 0002 08D0     		beq	.L10
 165 0004 022B     		cmp	r3, #2
 166 0006 09D0     		beq	.L11
 167 0008 13B1     		cbz	r3, .L14
 321:Drivers/u8g2_csrc/u8g2_font.c ****   {
 322:Drivers/u8g2_csrc/u8g2_font.c ****     case 0:
 323:Drivers/u8g2_csrc/u8g2_font.c ****       dx += x;
 324:Drivers/u8g2_csrc/u8g2_font.c ****       break;
 325:Drivers/u8g2_csrc/u8g2_font.c ****     case 1:
 326:Drivers/u8g2_csrc/u8g2_font.c ****       dx -= y;
 327:Drivers/u8g2_csrc/u8g2_font.c ****       break;
 328:Drivers/u8g2_csrc/u8g2_font.c ****     case 2:
 329:Drivers/u8g2_csrc/u8g2_font.c ****       dx -= x;
 330:Drivers/u8g2_csrc/u8g2_font.c ****       break;
 331:Drivers/u8g2_csrc/u8g2_font.c ****     default:
 332:Drivers/u8g2_csrc/u8g2_font.c ****       dx += y;
 168              		.loc 1 332 7 view .LVU41
 169              		.loc 1 332 10 is_stmt 0 view .LVU42
 170 000a 1044     		add	r0, r0, r2
 171              	.LVL16:
 172              		.loc 1 332 10 view .LVU43
 173 000c C0B2     		uxtb	r0, r0
 174              	.LVL17:
 333:Drivers/u8g2_csrc/u8g2_font.c ****       break;      
 175              		.loc 1 333 7 is_stmt 1 view .LVU44
ARM GAS  C:\Users\25339\AppData\Local\Temp\ccNjsSLI.s 			page 10


 334:Drivers/u8g2_csrc/u8g2_font.c ****   }
 335:Drivers/u8g2_csrc/u8g2_font.c ****   return dx;
 176              		.loc 1 335 3 view .LVU45
 336:Drivers/u8g2_csrc/u8g2_font.c **** }
 177              		.loc 1 336 1 is_stmt 0 view .LVU46
 178 000e 7047     		bx	lr
 179              	.L14:
 323:Drivers/u8g2_csrc/u8g2_font.c ****       break;
 180              		.loc 1 323 7 is_stmt 1 view .LVU47
 323:Drivers/u8g2_csrc/u8g2_font.c ****       break;
 181              		.loc 1 323 10 is_stmt 0 view .LVU48
 182 0010 0844     		add	r0, r0, r1
 183              	.LVL18:
 323:Drivers/u8g2_csrc/u8g2_font.c ****       break;
 184              		.loc 1 323 10 view .LVU49
 185 0012 C0B2     		uxtb	r0, r0
 186              	.LVL19:
 324:Drivers/u8g2_csrc/u8g2_font.c ****     case 1:
 187              		.loc 1 324 7 is_stmt 1 view .LVU50
 188 0014 7047     		bx	lr
 189              	.L10:
 326:Drivers/u8g2_csrc/u8g2_font.c ****       break;
 190              		.loc 1 326 7 view .LVU51
 326:Drivers/u8g2_csrc/u8g2_font.c ****       break;
 191              		.loc 1 326 10 is_stmt 0 view .LVU52
 192 0016 801A     		subs	r0, r0, r2
 193              	.LVL20:
 326:Drivers/u8g2_csrc/u8g2_font.c ****       break;
 194              		.loc 1 326 10 view .LVU53
 195 0018 C0B2     		uxtb	r0, r0
 196              	.LVL21:
 327:Drivers/u8g2_csrc/u8g2_font.c ****     case 2:
 197              		.loc 1 327 7 is_stmt 1 view .LVU54
 198 001a 7047     		bx	lr
 199              	.L11:
 329:Drivers/u8g2_csrc/u8g2_font.c ****       break;
 200              		.loc 1 329 7 view .LVU55
 329:Drivers/u8g2_csrc/u8g2_font.c ****       break;
 201              		.loc 1 329 10 is_stmt 0 view .LVU56
 202 001c 401A     		subs	r0, r0, r1
 203              	.LVL22:
 329:Drivers/u8g2_csrc/u8g2_font.c ****       break;
 204              		.loc 1 329 10 view .LVU57
 205 001e C0B2     		uxtb	r0, r0
 206              	.LVL23:
 330:Drivers/u8g2_csrc/u8g2_font.c ****     default:
 207              		.loc 1 330 7 is_stmt 1 view .LVU58
 208 0020 7047     		bx	lr
 209              		.cfi_endproc
 210              	.LFE12:
 212              		.section	.text.u8g2_font_calc_vref_font,"ax",%progbits
 213              		.align	1
 214              		.global	u8g2_font_calc_vref_font
 215              		.syntax unified
 216              		.thumb
 217              		.thumb_func
 218              		.fpu softvfp
ARM GAS  C:\Users\25339\AppData\Local\Temp\ccNjsSLI.s 			page 11


 220              	u8g2_font_calc_vref_font:
 221              	.LVL24:
 222              	.LFB31:
 337:Drivers/u8g2_csrc/u8g2_font.c **** #endif
 338:Drivers/u8g2_csrc/u8g2_font.c **** 
 339:Drivers/u8g2_csrc/u8g2_font.c **** 
 340:Drivers/u8g2_csrc/u8g2_font.c **** 
 341:Drivers/u8g2_csrc/u8g2_font.c **** /*
 342:Drivers/u8g2_csrc/u8g2_font.c ****   Description:
 343:Drivers/u8g2_csrc/u8g2_font.c ****     Draw a run-length area of the glyph. "len" can have any size and the line
 344:Drivers/u8g2_csrc/u8g2_font.c ****     length has to be wrapped at the glyph border.
 345:Drivers/u8g2_csrc/u8g2_font.c ****   Args:
 346:Drivers/u8g2_csrc/u8g2_font.c ****     len: 					Length of the line
 347:Drivers/u8g2_csrc/u8g2_font.c ****     is_foreground			foreground/background?
 348:Drivers/u8g2_csrc/u8g2_font.c ****     u8g2->font_decode.target_x		X position
 349:Drivers/u8g2_csrc/u8g2_font.c ****     u8g2->font_decode.target_y		Y position
 350:Drivers/u8g2_csrc/u8g2_font.c ****     u8g2->font_decode.is_transparent	Transparent mode
 351:Drivers/u8g2_csrc/u8g2_font.c ****   Return:
 352:Drivers/u8g2_csrc/u8g2_font.c ****     -
 353:Drivers/u8g2_csrc/u8g2_font.c ****   Calls:
 354:Drivers/u8g2_csrc/u8g2_font.c ****     u8g2_Draw90Line()
 355:Drivers/u8g2_csrc/u8g2_font.c ****   Called by:
 356:Drivers/u8g2_csrc/u8g2_font.c ****     u8g2_font_decode_glyph()
 357:Drivers/u8g2_csrc/u8g2_font.c **** */
 358:Drivers/u8g2_csrc/u8g2_font.c **** /* optimized */
 359:Drivers/u8g2_csrc/u8g2_font.c **** void u8g2_font_decode_len(u8g2_t *u8g2, uint8_t len, uint8_t is_foreground)
 360:Drivers/u8g2_csrc/u8g2_font.c **** {
 361:Drivers/u8g2_csrc/u8g2_font.c ****   uint8_t cnt;	/* total number of remaining pixels, which have to be drawn */
 362:Drivers/u8g2_csrc/u8g2_font.c ****   uint8_t rem; 	/* remaining pixel to the right edge of the glyph */
 363:Drivers/u8g2_csrc/u8g2_font.c ****   uint8_t current;	/* number of pixels, which need to be drawn for the draw procedure */
 364:Drivers/u8g2_csrc/u8g2_font.c ****     /* current is either equal to cnt or equal to rem */
 365:Drivers/u8g2_csrc/u8g2_font.c ****   
 366:Drivers/u8g2_csrc/u8g2_font.c ****   /* local coordinates of the glyph */
 367:Drivers/u8g2_csrc/u8g2_font.c ****   uint8_t lx,ly;
 368:Drivers/u8g2_csrc/u8g2_font.c ****   
 369:Drivers/u8g2_csrc/u8g2_font.c ****   /* target position on the screen */
 370:Drivers/u8g2_csrc/u8g2_font.c ****   u8g2_uint_t x, y;
 371:Drivers/u8g2_csrc/u8g2_font.c ****   
 372:Drivers/u8g2_csrc/u8g2_font.c ****   u8g2_font_decode_t *decode = &(u8g2->font_decode);
 373:Drivers/u8g2_csrc/u8g2_font.c ****   
 374:Drivers/u8g2_csrc/u8g2_font.c ****   cnt = len;
 375:Drivers/u8g2_csrc/u8g2_font.c ****   
 376:Drivers/u8g2_csrc/u8g2_font.c ****   /* get the local position */
 377:Drivers/u8g2_csrc/u8g2_font.c ****   lx = decode->x;
 378:Drivers/u8g2_csrc/u8g2_font.c ****   ly = decode->y;
 379:Drivers/u8g2_csrc/u8g2_font.c ****   
 380:Drivers/u8g2_csrc/u8g2_font.c ****   for(;;)
 381:Drivers/u8g2_csrc/u8g2_font.c ****   {
 382:Drivers/u8g2_csrc/u8g2_font.c ****     /* calculate the number of pixel to the right edge of the glyph */
 383:Drivers/u8g2_csrc/u8g2_font.c ****     rem = decode->glyph_width;
 384:Drivers/u8g2_csrc/u8g2_font.c ****     rem -= lx;
 385:Drivers/u8g2_csrc/u8g2_font.c ****     
 386:Drivers/u8g2_csrc/u8g2_font.c ****     /* calculate how many pixel to draw. This is either to the right edge */
 387:Drivers/u8g2_csrc/u8g2_font.c ****     /* or lesser, if not enough pixel are left */
 388:Drivers/u8g2_csrc/u8g2_font.c ****     current = rem;
 389:Drivers/u8g2_csrc/u8g2_font.c ****     if ( cnt < rem )
 390:Drivers/u8g2_csrc/u8g2_font.c ****       current = cnt;
ARM GAS  C:\Users\25339\AppData\Local\Temp\ccNjsSLI.s 			page 12


 391:Drivers/u8g2_csrc/u8g2_font.c ****     
 392:Drivers/u8g2_csrc/u8g2_font.c ****     
 393:Drivers/u8g2_csrc/u8g2_font.c ****     /* now draw the line, but apply the rotation around the glyph target position */
 394:Drivers/u8g2_csrc/u8g2_font.c ****     //u8g2_font_decode_draw_pixel(u8g2, lx,ly,current, is_foreground);
 395:Drivers/u8g2_csrc/u8g2_font.c **** 
 396:Drivers/u8g2_csrc/u8g2_font.c ****     /* get target position */
 397:Drivers/u8g2_csrc/u8g2_font.c ****     x = decode->target_x;
 398:Drivers/u8g2_csrc/u8g2_font.c ****     y = decode->target_y;
 399:Drivers/u8g2_csrc/u8g2_font.c **** 
 400:Drivers/u8g2_csrc/u8g2_font.c ****     /* apply rotation */
 401:Drivers/u8g2_csrc/u8g2_font.c **** #ifdef U8G2_WITH_FONT_ROTATION
 402:Drivers/u8g2_csrc/u8g2_font.c ****     x = u8g2_add_vector_x(x, lx, ly, decode->dir);
 403:Drivers/u8g2_csrc/u8g2_font.c ****     y = u8g2_add_vector_y(y, lx, ly, decode->dir);
 404:Drivers/u8g2_csrc/u8g2_font.c **** #else
 405:Drivers/u8g2_csrc/u8g2_font.c ****     x += lx;
 406:Drivers/u8g2_csrc/u8g2_font.c ****     y += ly;
 407:Drivers/u8g2_csrc/u8g2_font.c **** #endif
 408:Drivers/u8g2_csrc/u8g2_font.c ****     
 409:Drivers/u8g2_csrc/u8g2_font.c ****     /* draw foreground and background (if required) */
 410:Drivers/u8g2_csrc/u8g2_font.c ****     if ( is_foreground )
 411:Drivers/u8g2_csrc/u8g2_font.c ****     {
 412:Drivers/u8g2_csrc/u8g2_font.c ****       u8g2->draw_color = decode->fg_color;			/* draw_color will be restored later */
 413:Drivers/u8g2_csrc/u8g2_font.c ****       u8g2_DrawHVLine(u8g2, 
 414:Drivers/u8g2_csrc/u8g2_font.c **** 	x, 
 415:Drivers/u8g2_csrc/u8g2_font.c **** 	y, 
 416:Drivers/u8g2_csrc/u8g2_font.c **** 	current, 
 417:Drivers/u8g2_csrc/u8g2_font.c **** #ifdef U8G2_WITH_FONT_ROTATION
 418:Drivers/u8g2_csrc/u8g2_font.c **** 	/* dir */ decode->dir
 419:Drivers/u8g2_csrc/u8g2_font.c **** #else
 420:Drivers/u8g2_csrc/u8g2_font.c **** 	0
 421:Drivers/u8g2_csrc/u8g2_font.c **** #endif
 422:Drivers/u8g2_csrc/u8g2_font.c ****       );
 423:Drivers/u8g2_csrc/u8g2_font.c ****     }
 424:Drivers/u8g2_csrc/u8g2_font.c ****     else if ( decode->is_transparent == 0 )    
 425:Drivers/u8g2_csrc/u8g2_font.c ****     {
 426:Drivers/u8g2_csrc/u8g2_font.c ****       u8g2->draw_color = decode->bg_color;			/* draw_color will be restored later */
 427:Drivers/u8g2_csrc/u8g2_font.c ****       u8g2_DrawHVLine(u8g2, 
 428:Drivers/u8g2_csrc/u8g2_font.c **** 	x, 
 429:Drivers/u8g2_csrc/u8g2_font.c **** 	y, 
 430:Drivers/u8g2_csrc/u8g2_font.c **** 	current, 
 431:Drivers/u8g2_csrc/u8g2_font.c **** #ifdef U8G2_WITH_FONT_ROTATION
 432:Drivers/u8g2_csrc/u8g2_font.c **** 	/* dir */ decode->dir
 433:Drivers/u8g2_csrc/u8g2_font.c **** #else
 434:Drivers/u8g2_csrc/u8g2_font.c **** 	0
 435:Drivers/u8g2_csrc/u8g2_font.c **** #endif
 436:Drivers/u8g2_csrc/u8g2_font.c ****       );   
 437:Drivers/u8g2_csrc/u8g2_font.c ****     }
 438:Drivers/u8g2_csrc/u8g2_font.c ****     
 439:Drivers/u8g2_csrc/u8g2_font.c ****     /* check, whether the end of the run length code has been reached */
 440:Drivers/u8g2_csrc/u8g2_font.c ****     if ( cnt < rem )
 441:Drivers/u8g2_csrc/u8g2_font.c ****       break;
 442:Drivers/u8g2_csrc/u8g2_font.c ****     cnt -= rem;
 443:Drivers/u8g2_csrc/u8g2_font.c ****     lx = 0;
 444:Drivers/u8g2_csrc/u8g2_font.c ****     ly++;
 445:Drivers/u8g2_csrc/u8g2_font.c ****   }
 446:Drivers/u8g2_csrc/u8g2_font.c ****   lx += cnt;
 447:Drivers/u8g2_csrc/u8g2_font.c ****   
ARM GAS  C:\Users\25339\AppData\Local\Temp\ccNjsSLI.s 			page 13


 448:Drivers/u8g2_csrc/u8g2_font.c ****   decode->x = lx;
 449:Drivers/u8g2_csrc/u8g2_font.c ****   decode->y = ly;
 450:Drivers/u8g2_csrc/u8g2_font.c ****   
 451:Drivers/u8g2_csrc/u8g2_font.c **** }
 452:Drivers/u8g2_csrc/u8g2_font.c **** 
 453:Drivers/u8g2_csrc/u8g2_font.c **** static void u8g2_font_setup_decode(u8g2_t *u8g2, const uint8_t *glyph_data)
 454:Drivers/u8g2_csrc/u8g2_font.c **** {
 455:Drivers/u8g2_csrc/u8g2_font.c ****   u8g2_font_decode_t *decode = &(u8g2->font_decode);
 456:Drivers/u8g2_csrc/u8g2_font.c ****   decode->decode_ptr = glyph_data;
 457:Drivers/u8g2_csrc/u8g2_font.c ****   decode->decode_bit_pos = 0;
 458:Drivers/u8g2_csrc/u8g2_font.c ****   
 459:Drivers/u8g2_csrc/u8g2_font.c ****   /* 8 Nov 2015, this is already done in the glyph data search procedure */
 460:Drivers/u8g2_csrc/u8g2_font.c ****   /*
 461:Drivers/u8g2_csrc/u8g2_font.c ****   decode->decode_ptr += 1;
 462:Drivers/u8g2_csrc/u8g2_font.c ****   decode->decode_ptr += 1;
 463:Drivers/u8g2_csrc/u8g2_font.c ****   */
 464:Drivers/u8g2_csrc/u8g2_font.c ****   
 465:Drivers/u8g2_csrc/u8g2_font.c ****   decode->glyph_width = u8g2_font_decode_get_unsigned_bits(decode, u8g2->font_info.bits_per_char_wi
 466:Drivers/u8g2_csrc/u8g2_font.c ****   decode->glyph_height = u8g2_font_decode_get_unsigned_bits(decode,u8g2->font_info.bits_per_char_he
 467:Drivers/u8g2_csrc/u8g2_font.c ****   
 468:Drivers/u8g2_csrc/u8g2_font.c ****   decode->fg_color = u8g2->draw_color;
 469:Drivers/u8g2_csrc/u8g2_font.c ****   decode->bg_color = (decode->fg_color == 0 ? 1 : 0);
 470:Drivers/u8g2_csrc/u8g2_font.c **** }
 471:Drivers/u8g2_csrc/u8g2_font.c **** 
 472:Drivers/u8g2_csrc/u8g2_font.c **** 
 473:Drivers/u8g2_csrc/u8g2_font.c **** /*
 474:Drivers/u8g2_csrc/u8g2_font.c ****   Description:
 475:Drivers/u8g2_csrc/u8g2_font.c ****     Decode and draw a glyph.
 476:Drivers/u8g2_csrc/u8g2_font.c ****   Args:
 477:Drivers/u8g2_csrc/u8g2_font.c ****     glyph_data: 					Pointer to the compressed glyph data of the font
 478:Drivers/u8g2_csrc/u8g2_font.c ****     u8g2->font_decode.target_x		X position
 479:Drivers/u8g2_csrc/u8g2_font.c ****     u8g2->font_decode.target_y		Y position
 480:Drivers/u8g2_csrc/u8g2_font.c ****     u8g2->font_decode.is_transparent	Transparent mode
 481:Drivers/u8g2_csrc/u8g2_font.c ****   Return:
 482:Drivers/u8g2_csrc/u8g2_font.c ****     Width (delta x advance) of the glyph.
 483:Drivers/u8g2_csrc/u8g2_font.c ****   Calls:
 484:Drivers/u8g2_csrc/u8g2_font.c ****     u8g2_font_decode_len()
 485:Drivers/u8g2_csrc/u8g2_font.c **** */
 486:Drivers/u8g2_csrc/u8g2_font.c **** /* optimized */
 487:Drivers/u8g2_csrc/u8g2_font.c **** int8_t u8g2_font_decode_glyph(u8g2_t *u8g2, const uint8_t *glyph_data)
 488:Drivers/u8g2_csrc/u8g2_font.c **** {
 489:Drivers/u8g2_csrc/u8g2_font.c ****   uint8_t a, b;
 490:Drivers/u8g2_csrc/u8g2_font.c ****   int8_t x, y;
 491:Drivers/u8g2_csrc/u8g2_font.c ****   int8_t d;
 492:Drivers/u8g2_csrc/u8g2_font.c ****   int8_t h;
 493:Drivers/u8g2_csrc/u8g2_font.c ****   u8g2_font_decode_t *decode = &(u8g2->font_decode);
 494:Drivers/u8g2_csrc/u8g2_font.c ****     
 495:Drivers/u8g2_csrc/u8g2_font.c ****   u8g2_font_setup_decode(u8g2, glyph_data);
 496:Drivers/u8g2_csrc/u8g2_font.c ****   h = u8g2->font_decode.glyph_height;
 497:Drivers/u8g2_csrc/u8g2_font.c ****   
 498:Drivers/u8g2_csrc/u8g2_font.c ****   x = u8g2_font_decode_get_signed_bits(decode, u8g2->font_info.bits_per_char_x);
 499:Drivers/u8g2_csrc/u8g2_font.c ****   y = u8g2_font_decode_get_signed_bits(decode, u8g2->font_info.bits_per_char_y);
 500:Drivers/u8g2_csrc/u8g2_font.c ****   d = u8g2_font_decode_get_signed_bits(decode, u8g2->font_info.bits_per_delta_x);
 501:Drivers/u8g2_csrc/u8g2_font.c ****   
 502:Drivers/u8g2_csrc/u8g2_font.c ****   if ( decode->glyph_width > 0 )
 503:Drivers/u8g2_csrc/u8g2_font.c ****   {
 504:Drivers/u8g2_csrc/u8g2_font.c **** #ifdef U8G2_WITH_FONT_ROTATION
ARM GAS  C:\Users\25339\AppData\Local\Temp\ccNjsSLI.s 			page 14


 505:Drivers/u8g2_csrc/u8g2_font.c ****     decode->target_x = u8g2_add_vector_x(decode->target_x, x, -(h+y), decode->dir);
 506:Drivers/u8g2_csrc/u8g2_font.c ****     decode->target_y = u8g2_add_vector_y(decode->target_y, x, -(h+y), decode->dir);
 507:Drivers/u8g2_csrc/u8g2_font.c **** #else
 508:Drivers/u8g2_csrc/u8g2_font.c ****     decode->target_x += x;
 509:Drivers/u8g2_csrc/u8g2_font.c ****     decode->target_y -= h+y;
 510:Drivers/u8g2_csrc/u8g2_font.c **** #endif
 511:Drivers/u8g2_csrc/u8g2_font.c ****     //u8g2_add_vector(&(decode->target_x), &(decode->target_y), x, -(h+y), decode->dir);
 512:Drivers/u8g2_csrc/u8g2_font.c **** 
 513:Drivers/u8g2_csrc/u8g2_font.c **** #ifdef U8G2_WITH_INTERSECTION
 514:Drivers/u8g2_csrc/u8g2_font.c ****     {
 515:Drivers/u8g2_csrc/u8g2_font.c ****       u8g2_uint_t x0, x1, y0, y1;
 516:Drivers/u8g2_csrc/u8g2_font.c ****       x0 = decode->target_x;
 517:Drivers/u8g2_csrc/u8g2_font.c ****       y0 = decode->target_y;
 518:Drivers/u8g2_csrc/u8g2_font.c ****       x1 = x0;
 519:Drivers/u8g2_csrc/u8g2_font.c ****       y1 = y0;
 520:Drivers/u8g2_csrc/u8g2_font.c ****       
 521:Drivers/u8g2_csrc/u8g2_font.c **** #ifdef U8G2_WITH_FONT_ROTATION
 522:Drivers/u8g2_csrc/u8g2_font.c ****       switch(decode->dir)
 523:Drivers/u8g2_csrc/u8g2_font.c ****       {
 524:Drivers/u8g2_csrc/u8g2_font.c **** 	case 0:
 525:Drivers/u8g2_csrc/u8g2_font.c **** 	    x1 += decode->glyph_width;
 526:Drivers/u8g2_csrc/u8g2_font.c **** 	    y1 += h;
 527:Drivers/u8g2_csrc/u8g2_font.c **** 	    break;
 528:Drivers/u8g2_csrc/u8g2_font.c **** 	case 1:
 529:Drivers/u8g2_csrc/u8g2_font.c **** 	    x0 -= h;
 530:Drivers/u8g2_csrc/u8g2_font.c **** 	    x0++;	/* shift down, because of assymetric boundaries for the interseciton test */
 531:Drivers/u8g2_csrc/u8g2_font.c **** 	    x1++;
 532:Drivers/u8g2_csrc/u8g2_font.c **** 	    y1 += decode->glyph_width;
 533:Drivers/u8g2_csrc/u8g2_font.c **** 	    break;
 534:Drivers/u8g2_csrc/u8g2_font.c **** 	case 2:
 535:Drivers/u8g2_csrc/u8g2_font.c **** 	    x0 -= decode->glyph_width;
 536:Drivers/u8g2_csrc/u8g2_font.c **** 	    x0++;	/* shift down, because of assymetric boundaries for the interseciton test */
 537:Drivers/u8g2_csrc/u8g2_font.c **** 	    x1++;
 538:Drivers/u8g2_csrc/u8g2_font.c **** 	    y0 -= h;
 539:Drivers/u8g2_csrc/u8g2_font.c **** 	    y0++;	/* shift down, because of assymetric boundaries for the interseciton test */
 540:Drivers/u8g2_csrc/u8g2_font.c **** 	    y1++;
 541:Drivers/u8g2_csrc/u8g2_font.c **** 	    break;	  
 542:Drivers/u8g2_csrc/u8g2_font.c **** 	case 3:
 543:Drivers/u8g2_csrc/u8g2_font.c **** 	    x1 += h;
 544:Drivers/u8g2_csrc/u8g2_font.c **** 	    y0 -= decode->glyph_width;
 545:Drivers/u8g2_csrc/u8g2_font.c **** 	    y0++;	/* shift down, because of assymetric boundaries for the interseciton test */
 546:Drivers/u8g2_csrc/u8g2_font.c **** 	    y1++;
 547:Drivers/u8g2_csrc/u8g2_font.c **** 	    break;	  
 548:Drivers/u8g2_csrc/u8g2_font.c ****       }
 549:Drivers/u8g2_csrc/u8g2_font.c **** #else /* U8G2_WITH_FONT_ROTATION */
 550:Drivers/u8g2_csrc/u8g2_font.c ****       x1 += decode->glyph_width;
 551:Drivers/u8g2_csrc/u8g2_font.c ****       y1 += h;      
 552:Drivers/u8g2_csrc/u8g2_font.c **** #endif
 553:Drivers/u8g2_csrc/u8g2_font.c ****       
 554:Drivers/u8g2_csrc/u8g2_font.c ****       if ( u8g2_IsIntersection(u8g2, x0, y0, x1, y1) == 0 ) 
 555:Drivers/u8g2_csrc/u8g2_font.c **** 	return d;
 556:Drivers/u8g2_csrc/u8g2_font.c ****     }
 557:Drivers/u8g2_csrc/u8g2_font.c **** #endif /* U8G2_WITH_INTERSECTION */
 558:Drivers/u8g2_csrc/u8g2_font.c ****    
 559:Drivers/u8g2_csrc/u8g2_font.c ****     /* reset local x/y position */
 560:Drivers/u8g2_csrc/u8g2_font.c ****     decode->x = 0;
 561:Drivers/u8g2_csrc/u8g2_font.c ****     decode->y = 0;
ARM GAS  C:\Users\25339\AppData\Local\Temp\ccNjsSLI.s 			page 15


 562:Drivers/u8g2_csrc/u8g2_font.c ****     
 563:Drivers/u8g2_csrc/u8g2_font.c ****     /* decode glyph */
 564:Drivers/u8g2_csrc/u8g2_font.c ****     for(;;)
 565:Drivers/u8g2_csrc/u8g2_font.c ****     {
 566:Drivers/u8g2_csrc/u8g2_font.c ****       a = u8g2_font_decode_get_unsigned_bits(decode, u8g2->font_info.bits_per_0);
 567:Drivers/u8g2_csrc/u8g2_font.c ****       b = u8g2_font_decode_get_unsigned_bits(decode, u8g2->font_info.bits_per_1);
 568:Drivers/u8g2_csrc/u8g2_font.c ****       do
 569:Drivers/u8g2_csrc/u8g2_font.c ****       {
 570:Drivers/u8g2_csrc/u8g2_font.c **** 	u8g2_font_decode_len(u8g2, a, 0);
 571:Drivers/u8g2_csrc/u8g2_font.c **** 	u8g2_font_decode_len(u8g2, b, 1);
 572:Drivers/u8g2_csrc/u8g2_font.c ****       } while( u8g2_font_decode_get_unsigned_bits(decode, 1) != 0 );
 573:Drivers/u8g2_csrc/u8g2_font.c **** 
 574:Drivers/u8g2_csrc/u8g2_font.c ****       if ( decode->y >= h )
 575:Drivers/u8g2_csrc/u8g2_font.c **** 	break;
 576:Drivers/u8g2_csrc/u8g2_font.c ****     }
 577:Drivers/u8g2_csrc/u8g2_font.c ****     
 578:Drivers/u8g2_csrc/u8g2_font.c ****     /* restore the u8g2 draw color, because this is modified by the decode algo */
 579:Drivers/u8g2_csrc/u8g2_font.c ****     u8g2->draw_color = decode->fg_color;
 580:Drivers/u8g2_csrc/u8g2_font.c ****   }
 581:Drivers/u8g2_csrc/u8g2_font.c ****   return d;
 582:Drivers/u8g2_csrc/u8g2_font.c **** }
 583:Drivers/u8g2_csrc/u8g2_font.c **** 
 584:Drivers/u8g2_csrc/u8g2_font.c **** /*
 585:Drivers/u8g2_csrc/u8g2_font.c ****   Description:
 586:Drivers/u8g2_csrc/u8g2_font.c ****     Find the starting point of the glyph data.
 587:Drivers/u8g2_csrc/u8g2_font.c ****   Args:
 588:Drivers/u8g2_csrc/u8g2_font.c ****     encoding: Encoding (ASCII or Unicode) of the glyph
 589:Drivers/u8g2_csrc/u8g2_font.c ****   Return:
 590:Drivers/u8g2_csrc/u8g2_font.c ****     Address of the glyph data or NULL, if the encoding is not avialable in the font.
 591:Drivers/u8g2_csrc/u8g2_font.c **** */
 592:Drivers/u8g2_csrc/u8g2_font.c **** const uint8_t *u8g2_font_get_glyph_data(u8g2_t *u8g2, uint16_t encoding)
 593:Drivers/u8g2_csrc/u8g2_font.c **** {
 594:Drivers/u8g2_csrc/u8g2_font.c ****   const uint8_t *font = u8g2->font;
 595:Drivers/u8g2_csrc/u8g2_font.c ****   font += U8G2_FONT_DATA_STRUCT_SIZE;
 596:Drivers/u8g2_csrc/u8g2_font.c **** 
 597:Drivers/u8g2_csrc/u8g2_font.c ****   
 598:Drivers/u8g2_csrc/u8g2_font.c ****   if ( encoding <= 255 )
 599:Drivers/u8g2_csrc/u8g2_font.c ****   {
 600:Drivers/u8g2_csrc/u8g2_font.c ****     if ( encoding >= 'a' )
 601:Drivers/u8g2_csrc/u8g2_font.c ****     {
 602:Drivers/u8g2_csrc/u8g2_font.c ****       font += u8g2->font_info.start_pos_lower_a;
 603:Drivers/u8g2_csrc/u8g2_font.c ****     }
 604:Drivers/u8g2_csrc/u8g2_font.c ****     else if ( encoding >= 'A' )
 605:Drivers/u8g2_csrc/u8g2_font.c ****     {
 606:Drivers/u8g2_csrc/u8g2_font.c ****       font += u8g2->font_info.start_pos_upper_A;
 607:Drivers/u8g2_csrc/u8g2_font.c ****     }
 608:Drivers/u8g2_csrc/u8g2_font.c ****     
 609:Drivers/u8g2_csrc/u8g2_font.c ****     for(;;)
 610:Drivers/u8g2_csrc/u8g2_font.c ****     {
 611:Drivers/u8g2_csrc/u8g2_font.c ****       if ( u8x8_pgm_read( font + 1 ) == 0 )
 612:Drivers/u8g2_csrc/u8g2_font.c **** 	break;
 613:Drivers/u8g2_csrc/u8g2_font.c ****       if ( u8x8_pgm_read( font ) == encoding )
 614:Drivers/u8g2_csrc/u8g2_font.c ****       {
 615:Drivers/u8g2_csrc/u8g2_font.c **** 	return font+2;	/* skip encoding and glyph size */
 616:Drivers/u8g2_csrc/u8g2_font.c ****       }
 617:Drivers/u8g2_csrc/u8g2_font.c ****       font += u8x8_pgm_read( font + 1 );
 618:Drivers/u8g2_csrc/u8g2_font.c ****     }
ARM GAS  C:\Users\25339\AppData\Local\Temp\ccNjsSLI.s 			page 16


 619:Drivers/u8g2_csrc/u8g2_font.c ****   }
 620:Drivers/u8g2_csrc/u8g2_font.c **** #ifdef U8G2_WITH_UNICODE
 621:Drivers/u8g2_csrc/u8g2_font.c ****   else
 622:Drivers/u8g2_csrc/u8g2_font.c ****   {
 623:Drivers/u8g2_csrc/u8g2_font.c ****     uint16_t e;
 624:Drivers/u8g2_csrc/u8g2_font.c ****     const uint8_t *unicode_lookup_table;
 625:Drivers/u8g2_csrc/u8g2_font.c ****     
 626:Drivers/u8g2_csrc/u8g2_font.c **** // removed, there is now the new index table
 627:Drivers/u8g2_csrc/u8g2_font.c **** //#ifdef  __unix__
 628:Drivers/u8g2_csrc/u8g2_font.c **** //    if ( u8g2->last_font_data != NULL && encoding >= u8g2->last_unicode )
 629:Drivers/u8g2_csrc/u8g2_font.c **** //    {
 630:Drivers/u8g2_csrc/u8g2_font.c **** //	font = u8g2->last_font_data;
 631:Drivers/u8g2_csrc/u8g2_font.c **** //    }
 632:Drivers/u8g2_csrc/u8g2_font.c **** //    else
 633:Drivers/u8g2_csrc/u8g2_font.c **** //#endif 
 634:Drivers/u8g2_csrc/u8g2_font.c **** 
 635:Drivers/u8g2_csrc/u8g2_font.c ****     font += u8g2->font_info.start_pos_unicode;
 636:Drivers/u8g2_csrc/u8g2_font.c ****     unicode_lookup_table = font; 
 637:Drivers/u8g2_csrc/u8g2_font.c ****   
 638:Drivers/u8g2_csrc/u8g2_font.c ****     /* issue 596: search for the glyph start in the unicode lookup table */
 639:Drivers/u8g2_csrc/u8g2_font.c ****     do
 640:Drivers/u8g2_csrc/u8g2_font.c ****     {
 641:Drivers/u8g2_csrc/u8g2_font.c ****       font += u8g2_font_get_word(unicode_lookup_table, 0);
 642:Drivers/u8g2_csrc/u8g2_font.c ****       e = u8g2_font_get_word(unicode_lookup_table, 2);
 643:Drivers/u8g2_csrc/u8g2_font.c ****       unicode_lookup_table+=4;
 644:Drivers/u8g2_csrc/u8g2_font.c ****     } while( e < encoding );
 645:Drivers/u8g2_csrc/u8g2_font.c ****     
 646:Drivers/u8g2_csrc/u8g2_font.c ****   
 647:Drivers/u8g2_csrc/u8g2_font.c ****     for(;;)
 648:Drivers/u8g2_csrc/u8g2_font.c ****     {
 649:Drivers/u8g2_csrc/u8g2_font.c ****       e = u8x8_pgm_read( font );
 650:Drivers/u8g2_csrc/u8g2_font.c ****       e <<= 8;
 651:Drivers/u8g2_csrc/u8g2_font.c ****       e |= u8x8_pgm_read( font + 1 );
 652:Drivers/u8g2_csrc/u8g2_font.c ****   
 653:Drivers/u8g2_csrc/u8g2_font.c **** // removed, there is now the new index table  
 654:Drivers/u8g2_csrc/u8g2_font.c **** //#ifdef  __unix__
 655:Drivers/u8g2_csrc/u8g2_font.c **** //      if ( encoding < e )
 656:Drivers/u8g2_csrc/u8g2_font.c **** //        break;
 657:Drivers/u8g2_csrc/u8g2_font.c **** //#endif 
 658:Drivers/u8g2_csrc/u8g2_font.c **** 
 659:Drivers/u8g2_csrc/u8g2_font.c ****       if ( e == 0 )
 660:Drivers/u8g2_csrc/u8g2_font.c **** 	break;
 661:Drivers/u8g2_csrc/u8g2_font.c ****   
 662:Drivers/u8g2_csrc/u8g2_font.c ****       if ( e == encoding )
 663:Drivers/u8g2_csrc/u8g2_font.c ****       {
 664:Drivers/u8g2_csrc/u8g2_font.c **** // removed, there is now the new index table
 665:Drivers/u8g2_csrc/u8g2_font.c **** //#ifdef  __unix__
 666:Drivers/u8g2_csrc/u8g2_font.c **** //	u8g2->last_font_data = font;
 667:Drivers/u8g2_csrc/u8g2_font.c **** //	u8g2->last_unicode = encoding;
 668:Drivers/u8g2_csrc/u8g2_font.c **** //#endif 
 669:Drivers/u8g2_csrc/u8g2_font.c **** 	return font+3;	/* skip encoding and glyph size */
 670:Drivers/u8g2_csrc/u8g2_font.c ****       }
 671:Drivers/u8g2_csrc/u8g2_font.c ****       font += u8x8_pgm_read( font + 2 );
 672:Drivers/u8g2_csrc/u8g2_font.c ****     }  
 673:Drivers/u8g2_csrc/u8g2_font.c ****   }
 674:Drivers/u8g2_csrc/u8g2_font.c **** #endif
 675:Drivers/u8g2_csrc/u8g2_font.c ****   
ARM GAS  C:\Users\25339\AppData\Local\Temp\ccNjsSLI.s 			page 17


 676:Drivers/u8g2_csrc/u8g2_font.c ****   return NULL;
 677:Drivers/u8g2_csrc/u8g2_font.c **** }
 678:Drivers/u8g2_csrc/u8g2_font.c **** 
 679:Drivers/u8g2_csrc/u8g2_font.c **** static u8g2_uint_t u8g2_font_draw_glyph(u8g2_t *u8g2, u8g2_uint_t x, u8g2_uint_t y, uint16_t encodi
 680:Drivers/u8g2_csrc/u8g2_font.c **** {
 681:Drivers/u8g2_csrc/u8g2_font.c ****   u8g2_uint_t dx = 0;
 682:Drivers/u8g2_csrc/u8g2_font.c ****   u8g2->font_decode.target_x = x;
 683:Drivers/u8g2_csrc/u8g2_font.c ****   u8g2->font_decode.target_y = y;
 684:Drivers/u8g2_csrc/u8g2_font.c ****   //u8g2->font_decode.is_transparent = is_transparent; this is already set
 685:Drivers/u8g2_csrc/u8g2_font.c ****   //u8g2->font_decode.dir = dir;
 686:Drivers/u8g2_csrc/u8g2_font.c ****   const uint8_t *glyph_data = u8g2_font_get_glyph_data(u8g2, encoding);
 687:Drivers/u8g2_csrc/u8g2_font.c ****   if ( glyph_data != NULL )
 688:Drivers/u8g2_csrc/u8g2_font.c ****   {
 689:Drivers/u8g2_csrc/u8g2_font.c ****     dx = u8g2_font_decode_glyph(u8g2, glyph_data);
 690:Drivers/u8g2_csrc/u8g2_font.c ****   }
 691:Drivers/u8g2_csrc/u8g2_font.c ****   return dx;
 692:Drivers/u8g2_csrc/u8g2_font.c **** }
 693:Drivers/u8g2_csrc/u8g2_font.c **** 
 694:Drivers/u8g2_csrc/u8g2_font.c **** 
 695:Drivers/u8g2_csrc/u8g2_font.c **** 
 696:Drivers/u8g2_csrc/u8g2_font.c **** uint8_t u8g2_IsGlyph(u8g2_t *u8g2, uint16_t requested_encoding)
 697:Drivers/u8g2_csrc/u8g2_font.c **** {
 698:Drivers/u8g2_csrc/u8g2_font.c ****   /* updated to new code */
 699:Drivers/u8g2_csrc/u8g2_font.c ****   if ( u8g2_font_get_glyph_data(u8g2, requested_encoding) != NULL )
 700:Drivers/u8g2_csrc/u8g2_font.c ****     return 1;
 701:Drivers/u8g2_csrc/u8g2_font.c ****   return 0;
 702:Drivers/u8g2_csrc/u8g2_font.c **** }
 703:Drivers/u8g2_csrc/u8g2_font.c **** 
 704:Drivers/u8g2_csrc/u8g2_font.c **** /* side effect: updates u8g2->font_decode and u8g2->glyph_x_offset */
 705:Drivers/u8g2_csrc/u8g2_font.c **** int8_t u8g2_GetGlyphWidth(u8g2_t *u8g2, uint16_t requested_encoding)
 706:Drivers/u8g2_csrc/u8g2_font.c **** {
 707:Drivers/u8g2_csrc/u8g2_font.c ****   const uint8_t *glyph_data = u8g2_font_get_glyph_data(u8g2, requested_encoding);
 708:Drivers/u8g2_csrc/u8g2_font.c ****   if ( glyph_data == NULL )
 709:Drivers/u8g2_csrc/u8g2_font.c ****     return 0; 
 710:Drivers/u8g2_csrc/u8g2_font.c ****   
 711:Drivers/u8g2_csrc/u8g2_font.c ****   u8g2_font_setup_decode(u8g2, glyph_data);
 712:Drivers/u8g2_csrc/u8g2_font.c ****   u8g2->glyph_x_offset = u8g2_font_decode_get_signed_bits(&(u8g2->font_decode), u8g2->font_info.bit
 713:Drivers/u8g2_csrc/u8g2_font.c ****   u8g2_font_decode_get_signed_bits(&(u8g2->font_decode), u8g2->font_info.bits_per_char_y);
 714:Drivers/u8g2_csrc/u8g2_font.c ****   
 715:Drivers/u8g2_csrc/u8g2_font.c ****   /* glyph width is here: u8g2->font_decode.glyph_width */
 716:Drivers/u8g2_csrc/u8g2_font.c **** 
 717:Drivers/u8g2_csrc/u8g2_font.c ****   return u8g2_font_decode_get_signed_bits(&(u8g2->font_decode), u8g2->font_info.bits_per_delta_x);
 718:Drivers/u8g2_csrc/u8g2_font.c **** }
 719:Drivers/u8g2_csrc/u8g2_font.c **** 
 720:Drivers/u8g2_csrc/u8g2_font.c **** 
 721:Drivers/u8g2_csrc/u8g2_font.c **** /*
 722:Drivers/u8g2_csrc/u8g2_font.c ****   set one of:
 723:Drivers/u8g2_csrc/u8g2_font.c ****     U8G2_FONT_MODE_TRANSPARENT
 724:Drivers/u8g2_csrc/u8g2_font.c ****     U8G2_FONT_MODE_SOLID
 725:Drivers/u8g2_csrc/u8g2_font.c ****     U8G2_FONT_MODE_NONE
 726:Drivers/u8g2_csrc/u8g2_font.c ****   This has been changed for the new font procedures  
 727:Drivers/u8g2_csrc/u8g2_font.c **** */
 728:Drivers/u8g2_csrc/u8g2_font.c **** void u8g2_SetFontMode(u8g2_t *u8g2, uint8_t is_transparent)
 729:Drivers/u8g2_csrc/u8g2_font.c **** {
 730:Drivers/u8g2_csrc/u8g2_font.c ****   u8g2->font_decode.is_transparent = is_transparent;		// new font procedures
 731:Drivers/u8g2_csrc/u8g2_font.c **** }
 732:Drivers/u8g2_csrc/u8g2_font.c **** 
ARM GAS  C:\Users\25339\AppData\Local\Temp\ccNjsSLI.s 			page 18


 733:Drivers/u8g2_csrc/u8g2_font.c **** u8g2_uint_t u8g2_DrawGlyph(u8g2_t *u8g2, u8g2_uint_t x, u8g2_uint_t y, uint16_t encoding)
 734:Drivers/u8g2_csrc/u8g2_font.c **** {
 735:Drivers/u8g2_csrc/u8g2_font.c **** #ifdef U8G2_WITH_FONT_ROTATION
 736:Drivers/u8g2_csrc/u8g2_font.c ****   switch(u8g2->font_decode.dir)
 737:Drivers/u8g2_csrc/u8g2_font.c ****   {
 738:Drivers/u8g2_csrc/u8g2_font.c ****     case 0:
 739:Drivers/u8g2_csrc/u8g2_font.c ****       y += u8g2->font_calc_vref(u8g2);
 740:Drivers/u8g2_csrc/u8g2_font.c ****       break;
 741:Drivers/u8g2_csrc/u8g2_font.c ****     case 1:
 742:Drivers/u8g2_csrc/u8g2_font.c ****       x -= u8g2->font_calc_vref(u8g2);
 743:Drivers/u8g2_csrc/u8g2_font.c ****       break;
 744:Drivers/u8g2_csrc/u8g2_font.c ****     case 2:
 745:Drivers/u8g2_csrc/u8g2_font.c ****       y -= u8g2->font_calc_vref(u8g2);
 746:Drivers/u8g2_csrc/u8g2_font.c ****       break;
 747:Drivers/u8g2_csrc/u8g2_font.c ****     case 3:
 748:Drivers/u8g2_csrc/u8g2_font.c ****       x += u8g2->font_calc_vref(u8g2);
 749:Drivers/u8g2_csrc/u8g2_font.c ****       break;
 750:Drivers/u8g2_csrc/u8g2_font.c ****   }
 751:Drivers/u8g2_csrc/u8g2_font.c **** #else
 752:Drivers/u8g2_csrc/u8g2_font.c ****   y += u8g2->font_calc_vref(u8g2);
 753:Drivers/u8g2_csrc/u8g2_font.c **** #endif
 754:Drivers/u8g2_csrc/u8g2_font.c ****   return u8g2_font_draw_glyph(u8g2, x, y, encoding);
 755:Drivers/u8g2_csrc/u8g2_font.c **** }
 756:Drivers/u8g2_csrc/u8g2_font.c **** 
 757:Drivers/u8g2_csrc/u8g2_font.c **** static u8g2_uint_t u8g2_draw_string(u8g2_t *u8g2, u8g2_uint_t x, u8g2_uint_t y, const char *str) U8
 758:Drivers/u8g2_csrc/u8g2_font.c **** static u8g2_uint_t u8g2_draw_string(u8g2_t *u8g2, u8g2_uint_t x, u8g2_uint_t y, const char *str)
 759:Drivers/u8g2_csrc/u8g2_font.c **** {
 760:Drivers/u8g2_csrc/u8g2_font.c ****   uint16_t e;
 761:Drivers/u8g2_csrc/u8g2_font.c ****   u8g2_uint_t delta, sum;
 762:Drivers/u8g2_csrc/u8g2_font.c ****   u8x8_utf8_init(u8g2_GetU8x8(u8g2));
 763:Drivers/u8g2_csrc/u8g2_font.c ****   sum = 0;
 764:Drivers/u8g2_csrc/u8g2_font.c ****   for(;;)
 765:Drivers/u8g2_csrc/u8g2_font.c ****   {
 766:Drivers/u8g2_csrc/u8g2_font.c ****     e = u8g2->u8x8.next_cb(u8g2_GetU8x8(u8g2), (uint8_t)*str);
 767:Drivers/u8g2_csrc/u8g2_font.c ****     if ( e == 0x0ffff )
 768:Drivers/u8g2_csrc/u8g2_font.c ****       break;
 769:Drivers/u8g2_csrc/u8g2_font.c ****     str++;
 770:Drivers/u8g2_csrc/u8g2_font.c ****     if ( e != 0x0fffe )
 771:Drivers/u8g2_csrc/u8g2_font.c ****     {
 772:Drivers/u8g2_csrc/u8g2_font.c ****       delta = u8g2_DrawGlyph(u8g2, x, y, e);
 773:Drivers/u8g2_csrc/u8g2_font.c ****     
 774:Drivers/u8g2_csrc/u8g2_font.c **** #ifdef U8G2_WITH_FONT_ROTATION
 775:Drivers/u8g2_csrc/u8g2_font.c ****       switch(u8g2->font_decode.dir)
 776:Drivers/u8g2_csrc/u8g2_font.c ****       {
 777:Drivers/u8g2_csrc/u8g2_font.c **** 	case 0:
 778:Drivers/u8g2_csrc/u8g2_font.c **** 	  x += delta;
 779:Drivers/u8g2_csrc/u8g2_font.c **** 	  break;
 780:Drivers/u8g2_csrc/u8g2_font.c **** 	case 1:
 781:Drivers/u8g2_csrc/u8g2_font.c **** 	  y += delta;
 782:Drivers/u8g2_csrc/u8g2_font.c **** 	  break;
 783:Drivers/u8g2_csrc/u8g2_font.c **** 	case 2:
 784:Drivers/u8g2_csrc/u8g2_font.c **** 	  x -= delta;
 785:Drivers/u8g2_csrc/u8g2_font.c **** 	  break;
 786:Drivers/u8g2_csrc/u8g2_font.c **** 	case 3:
 787:Drivers/u8g2_csrc/u8g2_font.c **** 	  y -= delta;
 788:Drivers/u8g2_csrc/u8g2_font.c **** 	  break;
 789:Drivers/u8g2_csrc/u8g2_font.c ****       }
ARM GAS  C:\Users\25339\AppData\Local\Temp\ccNjsSLI.s 			page 19


 790:Drivers/u8g2_csrc/u8g2_font.c **** #else
 791:Drivers/u8g2_csrc/u8g2_font.c ****       x += delta;
 792:Drivers/u8g2_csrc/u8g2_font.c **** #endif
 793:Drivers/u8g2_csrc/u8g2_font.c **** 
 794:Drivers/u8g2_csrc/u8g2_font.c ****       sum += delta;    
 795:Drivers/u8g2_csrc/u8g2_font.c ****     }
 796:Drivers/u8g2_csrc/u8g2_font.c ****   }
 797:Drivers/u8g2_csrc/u8g2_font.c ****   return sum;
 798:Drivers/u8g2_csrc/u8g2_font.c **** }
 799:Drivers/u8g2_csrc/u8g2_font.c **** 
 800:Drivers/u8g2_csrc/u8g2_font.c **** u8g2_uint_t u8g2_DrawStr(u8g2_t *u8g2, u8g2_uint_t x, u8g2_uint_t y, const char *str)
 801:Drivers/u8g2_csrc/u8g2_font.c **** {
 802:Drivers/u8g2_csrc/u8g2_font.c ****   u8g2->u8x8.next_cb = u8x8_ascii_next;
 803:Drivers/u8g2_csrc/u8g2_font.c ****   return u8g2_draw_string(u8g2, x, y, str);
 804:Drivers/u8g2_csrc/u8g2_font.c **** }
 805:Drivers/u8g2_csrc/u8g2_font.c **** 
 806:Drivers/u8g2_csrc/u8g2_font.c **** /*
 807:Drivers/u8g2_csrc/u8g2_font.c **** source: https://en.wikipedia.org/wiki/UTF-8
 808:Drivers/u8g2_csrc/u8g2_font.c **** Bits	from 		to			bytes	Byte 1 		Byte 2 		Byte 3 		Byte 4 		Byte 5 		Byte 6
 809:Drivers/u8g2_csrc/u8g2_font.c ****   7 	U+0000 		U+007F 		1 		0xxxxxxx
 810:Drivers/u8g2_csrc/u8g2_font.c **** 11 	U+0080 		U+07FF 		2 		110xxxxx 	10xxxxxx
 811:Drivers/u8g2_csrc/u8g2_font.c **** 16 	U+0800 		U+FFFF 		3 		1110xxxx 	10xxxxxx 	10xxxxxx
 812:Drivers/u8g2_csrc/u8g2_font.c **** 21 	U+10000 	U+1FFFFF 	4 		11110xxx 	10xxxxxx 	10xxxxxx 	10xxxxxx
 813:Drivers/u8g2_csrc/u8g2_font.c **** 26 	U+200000 	U+3FFFFFF 	5 		111110xx 	10xxxxxx 	10xxxxxx 	10xxxxxx 	10xxxxxx
 814:Drivers/u8g2_csrc/u8g2_font.c **** 31 	U+4000000 	U+7FFFFFFF 	6 		1111110x 	10xxxxxx 	10xxxxxx 	10xxxxxx 	10xxxxxx 	10xxxxxx  
 815:Drivers/u8g2_csrc/u8g2_font.c **** */
 816:Drivers/u8g2_csrc/u8g2_font.c **** u8g2_uint_t u8g2_DrawUTF8(u8g2_t *u8g2, u8g2_uint_t x, u8g2_uint_t y, const char *str)
 817:Drivers/u8g2_csrc/u8g2_font.c **** {
 818:Drivers/u8g2_csrc/u8g2_font.c ****   u8g2->u8x8.next_cb = u8x8_utf8_next;
 819:Drivers/u8g2_csrc/u8g2_font.c ****   return u8g2_draw_string(u8g2, x, y, str);
 820:Drivers/u8g2_csrc/u8g2_font.c **** }
 821:Drivers/u8g2_csrc/u8g2_font.c **** 
 822:Drivers/u8g2_csrc/u8g2_font.c **** 
 823:Drivers/u8g2_csrc/u8g2_font.c **** 
 824:Drivers/u8g2_csrc/u8g2_font.c **** u8g2_uint_t u8g2_DrawExtendedUTF8(u8g2_t *u8g2, u8g2_uint_t x, u8g2_uint_t y, uint8_t to_left, u8g2
 825:Drivers/u8g2_csrc/u8g2_font.c **** {
 826:Drivers/u8g2_csrc/u8g2_font.c ****   u8g2->u8x8.next_cb = u8x8_utf8_next;
 827:Drivers/u8g2_csrc/u8g2_font.c ****   uint16_t e_prev = 0x0ffff;
 828:Drivers/u8g2_csrc/u8g2_font.c ****   uint16_t e;
 829:Drivers/u8g2_csrc/u8g2_font.c ****   u8g2_uint_t delta, sum, k;
 830:Drivers/u8g2_csrc/u8g2_font.c ****   u8x8_utf8_init(u8g2_GetU8x8(u8g2));
 831:Drivers/u8g2_csrc/u8g2_font.c ****   sum = 0;
 832:Drivers/u8g2_csrc/u8g2_font.c ****   for(;;)
 833:Drivers/u8g2_csrc/u8g2_font.c ****   {
 834:Drivers/u8g2_csrc/u8g2_font.c ****     e = u8g2->u8x8.next_cb(u8g2_GetU8x8(u8g2), (uint8_t)*str);
 835:Drivers/u8g2_csrc/u8g2_font.c ****     if ( e == 0x0ffff )
 836:Drivers/u8g2_csrc/u8g2_font.c ****       break;
 837:Drivers/u8g2_csrc/u8g2_font.c ****     str++;
 838:Drivers/u8g2_csrc/u8g2_font.c ****     if ( e != 0x0fffe )
 839:Drivers/u8g2_csrc/u8g2_font.c ****     {
 840:Drivers/u8g2_csrc/u8g2_font.c ****       delta = u8g2_GetGlyphWidth(u8g2, e);
 841:Drivers/u8g2_csrc/u8g2_font.c **** 	    
 842:Drivers/u8g2_csrc/u8g2_font.c ****       if ( to_left )
 843:Drivers/u8g2_csrc/u8g2_font.c ****       {
 844:Drivers/u8g2_csrc/u8g2_font.c ****         k = u8g2_GetKerning(u8g2, kerning, e, e_prev);
 845:Drivers/u8g2_csrc/u8g2_font.c **** 	delta -= k;
 846:Drivers/u8g2_csrc/u8g2_font.c **** 	x -= delta;
ARM GAS  C:\Users\25339\AppData\Local\Temp\ccNjsSLI.s 			page 20


 847:Drivers/u8g2_csrc/u8g2_font.c ****       }
 848:Drivers/u8g2_csrc/u8g2_font.c ****       else
 849:Drivers/u8g2_csrc/u8g2_font.c ****       {
 850:Drivers/u8g2_csrc/u8g2_font.c ****         k = u8g2_GetKerning(u8g2, kerning, e_prev, e);
 851:Drivers/u8g2_csrc/u8g2_font.c **** 	delta -= k;
 852:Drivers/u8g2_csrc/u8g2_font.c ****       }
 853:Drivers/u8g2_csrc/u8g2_font.c ****       e_prev = e;
 854:Drivers/u8g2_csrc/u8g2_font.c **** 
 855:Drivers/u8g2_csrc/u8g2_font.c ****       u8g2_DrawGlyph(u8g2, x, y, e);
 856:Drivers/u8g2_csrc/u8g2_font.c ****       if ( to_left )
 857:Drivers/u8g2_csrc/u8g2_font.c ****       {
 858:Drivers/u8g2_csrc/u8g2_font.c ****       }
 859:Drivers/u8g2_csrc/u8g2_font.c ****       else
 860:Drivers/u8g2_csrc/u8g2_font.c ****       {
 861:Drivers/u8g2_csrc/u8g2_font.c **** 	x += delta;
 862:Drivers/u8g2_csrc/u8g2_font.c **** 	x -= k;
 863:Drivers/u8g2_csrc/u8g2_font.c ****       }
 864:Drivers/u8g2_csrc/u8g2_font.c ****       
 865:Drivers/u8g2_csrc/u8g2_font.c ****       sum += delta;    
 866:Drivers/u8g2_csrc/u8g2_font.c ****     }
 867:Drivers/u8g2_csrc/u8g2_font.c ****   }
 868:Drivers/u8g2_csrc/u8g2_font.c ****   return sum;
 869:Drivers/u8g2_csrc/u8g2_font.c **** }
 870:Drivers/u8g2_csrc/u8g2_font.c **** 
 871:Drivers/u8g2_csrc/u8g2_font.c **** u8g2_uint_t u8g2_DrawExtUTF8(u8g2_t *u8g2, u8g2_uint_t x, u8g2_uint_t y, uint8_t to_left, const uin
 872:Drivers/u8g2_csrc/u8g2_font.c **** {
 873:Drivers/u8g2_csrc/u8g2_font.c ****   u8g2->u8x8.next_cb = u8x8_utf8_next;
 874:Drivers/u8g2_csrc/u8g2_font.c ****   uint16_t e_prev = 0x0ffff;
 875:Drivers/u8g2_csrc/u8g2_font.c ****   uint16_t e;
 876:Drivers/u8g2_csrc/u8g2_font.c ****   u8g2_uint_t delta, sum, k;
 877:Drivers/u8g2_csrc/u8g2_font.c ****   u8x8_utf8_init(u8g2_GetU8x8(u8g2));
 878:Drivers/u8g2_csrc/u8g2_font.c ****   sum = 0;
 879:Drivers/u8g2_csrc/u8g2_font.c ****   for(;;)
 880:Drivers/u8g2_csrc/u8g2_font.c ****   {
 881:Drivers/u8g2_csrc/u8g2_font.c ****     e = u8g2->u8x8.next_cb(u8g2_GetU8x8(u8g2), (uint8_t)*str);
 882:Drivers/u8g2_csrc/u8g2_font.c ****     if ( e == 0x0ffff )
 883:Drivers/u8g2_csrc/u8g2_font.c ****       break;
 884:Drivers/u8g2_csrc/u8g2_font.c ****     str++;
 885:Drivers/u8g2_csrc/u8g2_font.c ****     if ( e != 0x0fffe )
 886:Drivers/u8g2_csrc/u8g2_font.c ****     {
 887:Drivers/u8g2_csrc/u8g2_font.c ****       delta = u8g2_GetGlyphWidth(u8g2, e);
 888:Drivers/u8g2_csrc/u8g2_font.c **** 	    
 889:Drivers/u8g2_csrc/u8g2_font.c ****       if ( to_left )
 890:Drivers/u8g2_csrc/u8g2_font.c ****       {
 891:Drivers/u8g2_csrc/u8g2_font.c ****         k = u8g2_GetKerningByTable(u8g2, kerning_table, e, e_prev);
 892:Drivers/u8g2_csrc/u8g2_font.c **** 	delta -= k;
 893:Drivers/u8g2_csrc/u8g2_font.c **** 	x -= delta;
 894:Drivers/u8g2_csrc/u8g2_font.c ****       }
 895:Drivers/u8g2_csrc/u8g2_font.c ****       else
 896:Drivers/u8g2_csrc/u8g2_font.c ****       {
 897:Drivers/u8g2_csrc/u8g2_font.c ****         k = u8g2_GetKerningByTable(u8g2, kerning_table, e_prev, e);
 898:Drivers/u8g2_csrc/u8g2_font.c **** 	delta -= k;
 899:Drivers/u8g2_csrc/u8g2_font.c ****       }
 900:Drivers/u8g2_csrc/u8g2_font.c ****       e_prev = e;
 901:Drivers/u8g2_csrc/u8g2_font.c **** 
 902:Drivers/u8g2_csrc/u8g2_font.c ****       if ( to_left )
 903:Drivers/u8g2_csrc/u8g2_font.c ****       {
ARM GAS  C:\Users\25339\AppData\Local\Temp\ccNjsSLI.s 			page 21


 904:Drivers/u8g2_csrc/u8g2_font.c ****       }
 905:Drivers/u8g2_csrc/u8g2_font.c ****       else
 906:Drivers/u8g2_csrc/u8g2_font.c ****       {
 907:Drivers/u8g2_csrc/u8g2_font.c **** 	x += delta;
 908:Drivers/u8g2_csrc/u8g2_font.c ****       }
 909:Drivers/u8g2_csrc/u8g2_font.c ****       u8g2_DrawGlyph(u8g2, x, y, e);
 910:Drivers/u8g2_csrc/u8g2_font.c ****       if ( to_left )
 911:Drivers/u8g2_csrc/u8g2_font.c ****       {
 912:Drivers/u8g2_csrc/u8g2_font.c ****       }
 913:Drivers/u8g2_csrc/u8g2_font.c ****       else
 914:Drivers/u8g2_csrc/u8g2_font.c ****       {
 915:Drivers/u8g2_csrc/u8g2_font.c **** 	//x += delta;
 916:Drivers/u8g2_csrc/u8g2_font.c **** 	//x -= k;
 917:Drivers/u8g2_csrc/u8g2_font.c ****       }
 918:Drivers/u8g2_csrc/u8g2_font.c ****       
 919:Drivers/u8g2_csrc/u8g2_font.c ****       sum += delta;    
 920:Drivers/u8g2_csrc/u8g2_font.c ****     }
 921:Drivers/u8g2_csrc/u8g2_font.c ****   }
 922:Drivers/u8g2_csrc/u8g2_font.c ****   return sum;
 923:Drivers/u8g2_csrc/u8g2_font.c **** }
 924:Drivers/u8g2_csrc/u8g2_font.c **** 
 925:Drivers/u8g2_csrc/u8g2_font.c **** 
 926:Drivers/u8g2_csrc/u8g2_font.c **** 
 927:Drivers/u8g2_csrc/u8g2_font.c **** /*===============================================*/
 928:Drivers/u8g2_csrc/u8g2_font.c **** 
 929:Drivers/u8g2_csrc/u8g2_font.c **** /* set ascent/descent for reference point calculation */
 930:Drivers/u8g2_csrc/u8g2_font.c **** 
 931:Drivers/u8g2_csrc/u8g2_font.c **** void u8g2_UpdateRefHeight(u8g2_t *u8g2)
 932:Drivers/u8g2_csrc/u8g2_font.c **** {
 933:Drivers/u8g2_csrc/u8g2_font.c ****   if ( u8g2->font == NULL )
 934:Drivers/u8g2_csrc/u8g2_font.c ****     return;
 935:Drivers/u8g2_csrc/u8g2_font.c ****   u8g2->font_ref_ascent = u8g2->font_info.ascent_A;
 936:Drivers/u8g2_csrc/u8g2_font.c ****   u8g2->font_ref_descent = u8g2->font_info.descent_g;
 937:Drivers/u8g2_csrc/u8g2_font.c ****   if ( u8g2->font_height_mode == U8G2_FONT_HEIGHT_MODE_TEXT )
 938:Drivers/u8g2_csrc/u8g2_font.c ****   {
 939:Drivers/u8g2_csrc/u8g2_font.c ****   }
 940:Drivers/u8g2_csrc/u8g2_font.c ****   else if ( u8g2->font_height_mode == U8G2_FONT_HEIGHT_MODE_XTEXT )
 941:Drivers/u8g2_csrc/u8g2_font.c ****   {
 942:Drivers/u8g2_csrc/u8g2_font.c ****     if ( u8g2->font_ref_ascent < u8g2->font_info.ascent_para )
 943:Drivers/u8g2_csrc/u8g2_font.c ****       u8g2->font_ref_ascent = u8g2->font_info.ascent_para;
 944:Drivers/u8g2_csrc/u8g2_font.c ****     if ( u8g2->font_ref_descent > u8g2->font_info.descent_para )
 945:Drivers/u8g2_csrc/u8g2_font.c ****       u8g2->font_ref_descent = u8g2->font_info.descent_para;
 946:Drivers/u8g2_csrc/u8g2_font.c ****   }
 947:Drivers/u8g2_csrc/u8g2_font.c ****   else
 948:Drivers/u8g2_csrc/u8g2_font.c ****   {
 949:Drivers/u8g2_csrc/u8g2_font.c ****     if ( u8g2->font_ref_ascent < u8g2->font_info.max_char_height+u8g2->font_info.y_offset )
 950:Drivers/u8g2_csrc/u8g2_font.c ****       u8g2->font_ref_ascent = u8g2->font_info.max_char_height+u8g2->font_info.y_offset;
 951:Drivers/u8g2_csrc/u8g2_font.c ****     if ( u8g2->font_ref_descent > u8g2->font_info.y_offset )
 952:Drivers/u8g2_csrc/u8g2_font.c ****       u8g2->font_ref_descent = u8g2->font_info.y_offset;
 953:Drivers/u8g2_csrc/u8g2_font.c ****   }  
 954:Drivers/u8g2_csrc/u8g2_font.c **** }
 955:Drivers/u8g2_csrc/u8g2_font.c **** 
 956:Drivers/u8g2_csrc/u8g2_font.c **** void u8g2_SetFontRefHeightText(u8g2_t *u8g2)
 957:Drivers/u8g2_csrc/u8g2_font.c **** {
 958:Drivers/u8g2_csrc/u8g2_font.c ****   u8g2->font_height_mode = U8G2_FONT_HEIGHT_MODE_TEXT;
 959:Drivers/u8g2_csrc/u8g2_font.c ****   u8g2_UpdateRefHeight(u8g2);
 960:Drivers/u8g2_csrc/u8g2_font.c **** }
ARM GAS  C:\Users\25339\AppData\Local\Temp\ccNjsSLI.s 			page 22


 961:Drivers/u8g2_csrc/u8g2_font.c **** 
 962:Drivers/u8g2_csrc/u8g2_font.c **** void u8g2_SetFontRefHeightExtendedText(u8g2_t *u8g2)
 963:Drivers/u8g2_csrc/u8g2_font.c **** {
 964:Drivers/u8g2_csrc/u8g2_font.c ****   u8g2->font_height_mode = U8G2_FONT_HEIGHT_MODE_XTEXT;
 965:Drivers/u8g2_csrc/u8g2_font.c ****   u8g2_UpdateRefHeight(u8g2);
 966:Drivers/u8g2_csrc/u8g2_font.c **** }
 967:Drivers/u8g2_csrc/u8g2_font.c **** 
 968:Drivers/u8g2_csrc/u8g2_font.c **** void u8g2_SetFontRefHeightAll(u8g2_t *u8g2)
 969:Drivers/u8g2_csrc/u8g2_font.c **** {
 970:Drivers/u8g2_csrc/u8g2_font.c ****   u8g2->font_height_mode = U8G2_FONT_HEIGHT_MODE_ALL;
 971:Drivers/u8g2_csrc/u8g2_font.c ****   u8g2_UpdateRefHeight(u8g2);
 972:Drivers/u8g2_csrc/u8g2_font.c **** }
 973:Drivers/u8g2_csrc/u8g2_font.c **** 
 974:Drivers/u8g2_csrc/u8g2_font.c **** /*===============================================*/
 975:Drivers/u8g2_csrc/u8g2_font.c **** /* callback procedures to correct the y position */
 976:Drivers/u8g2_csrc/u8g2_font.c **** 
 977:Drivers/u8g2_csrc/u8g2_font.c **** u8g2_uint_t u8g2_font_calc_vref_font(U8X8_UNUSED u8g2_t *u8g2)
 978:Drivers/u8g2_csrc/u8g2_font.c **** {
 223              		.loc 1 978 1 view -0
 224              		.cfi_startproc
 225              		@ args = 0, pretend = 0, frame = 0
 226              		@ frame_needed = 0, uses_anonymous_args = 0
 227              		@ link register save eliminated.
 979:Drivers/u8g2_csrc/u8g2_font.c ****   return 0;
 228              		.loc 1 979 3 view .LVU60
 980:Drivers/u8g2_csrc/u8g2_font.c **** }
 229              		.loc 1 980 1 is_stmt 0 view .LVU61
 230 0000 0020     		movs	r0, #0
 231              	.LVL25:
 232              		.loc 1 980 1 view .LVU62
 233 0002 7047     		bx	lr
 234              		.cfi_endproc
 235              	.LFE31:
 237              		.section	.text.u8g2_font_calc_vref_bottom,"ax",%progbits
 238              		.align	1
 239              		.global	u8g2_font_calc_vref_bottom
 240              		.syntax unified
 241              		.thumb
 242              		.thumb_func
 243              		.fpu softvfp
 245              	u8g2_font_calc_vref_bottom:
 246              	.LVL26:
 247              	.LFB33:
 981:Drivers/u8g2_csrc/u8g2_font.c **** 
 982:Drivers/u8g2_csrc/u8g2_font.c **** void u8g2_SetFontPosBaseline(u8g2_t *u8g2)
 983:Drivers/u8g2_csrc/u8g2_font.c **** {
 984:Drivers/u8g2_csrc/u8g2_font.c ****   u8g2->font_calc_vref = u8g2_font_calc_vref_font;
 985:Drivers/u8g2_csrc/u8g2_font.c **** }
 986:Drivers/u8g2_csrc/u8g2_font.c **** 
 987:Drivers/u8g2_csrc/u8g2_font.c **** 
 988:Drivers/u8g2_csrc/u8g2_font.c **** u8g2_uint_t u8g2_font_calc_vref_bottom(u8g2_t *u8g2)
 989:Drivers/u8g2_csrc/u8g2_font.c **** {
 248              		.loc 1 989 1 is_stmt 1 view -0
 249              		.cfi_startproc
 250              		@ args = 0, pretend = 0, frame = 0
 251              		@ frame_needed = 0, uses_anonymous_args = 0
 252              		@ link register save eliminated.
ARM GAS  C:\Users\25339\AppData\Local\Temp\ccNjsSLI.s 			page 23


 990:Drivers/u8g2_csrc/u8g2_font.c ****   return (u8g2_uint_t)(u8g2->font_ref_descent);
 253              		.loc 1 990 3 view .LVU64
 254              		.loc 1 990 28 is_stmt 0 view .LVU65
 255 0000 90F98300 		ldrsb	r0, [r0, #131]
 256              	.LVL27:
 991:Drivers/u8g2_csrc/u8g2_font.c **** }
 257              		.loc 1 991 1 view .LVU66
 258 0004 C0B2     		uxtb	r0, r0
 259 0006 7047     		bx	lr
 260              		.cfi_endproc
 261              	.LFE33:
 263              		.section	.text.u8g2_font_calc_vref_top,"ax",%progbits
 264              		.align	1
 265              		.global	u8g2_font_calc_vref_top
 266              		.syntax unified
 267              		.thumb
 268              		.thumb_func
 269              		.fpu softvfp
 271              	u8g2_font_calc_vref_top:
 272              	.LVL28:
 273              	.LFB35:
 992:Drivers/u8g2_csrc/u8g2_font.c **** 
 993:Drivers/u8g2_csrc/u8g2_font.c **** void u8g2_SetFontPosBottom(u8g2_t *u8g2)
 994:Drivers/u8g2_csrc/u8g2_font.c **** {
 995:Drivers/u8g2_csrc/u8g2_font.c ****   u8g2->font_calc_vref = u8g2_font_calc_vref_bottom;
 996:Drivers/u8g2_csrc/u8g2_font.c **** }
 997:Drivers/u8g2_csrc/u8g2_font.c **** 
 998:Drivers/u8g2_csrc/u8g2_font.c **** u8g2_uint_t u8g2_font_calc_vref_top(u8g2_t *u8g2)
 999:Drivers/u8g2_csrc/u8g2_font.c **** {
 274              		.loc 1 999 1 is_stmt 1 view -0
 275              		.cfi_startproc
 276              		@ args = 0, pretend = 0, frame = 0
 277              		@ frame_needed = 0, uses_anonymous_args = 0
 278              		@ link register save eliminated.
1000:Drivers/u8g2_csrc/u8g2_font.c ****   u8g2_uint_t tmp;
 279              		.loc 1 1000 3 view .LVU68
1001:Drivers/u8g2_csrc/u8g2_font.c ****   /* reference pos is one pixel above the upper edge of the reference glyph */
1002:Drivers/u8g2_csrc/u8g2_font.c ****   tmp = (u8g2_uint_t)(u8g2->font_ref_ascent);
 280              		.loc 1 1002 3 view .LVU69
 281              		.loc 1 1002 27 is_stmt 0 view .LVU70
 282 0000 90F98200 		ldrsb	r0, [r0, #130]
 283              	.LVL29:
 284              		.loc 1 1002 7 view .LVU71
 285 0004 C0B2     		uxtb	r0, r0
 286              	.LVL30:
1003:Drivers/u8g2_csrc/u8g2_font.c ****   tmp++;
 287              		.loc 1 1003 3 is_stmt 1 view .LVU72
 288              		.loc 1 1003 6 is_stmt 0 view .LVU73
 289 0006 0130     		adds	r0, r0, #1
 290              	.LVL31:
1004:Drivers/u8g2_csrc/u8g2_font.c ****   return tmp;
 291              		.loc 1 1004 3 is_stmt 1 view .LVU74
1005:Drivers/u8g2_csrc/u8g2_font.c **** }
 292              		.loc 1 1005 1 is_stmt 0 view .LVU75
 293 0008 C0B2     		uxtb	r0, r0
 294              		.loc 1 1005 1 view .LVU76
 295 000a 7047     		bx	lr
ARM GAS  C:\Users\25339\AppData\Local\Temp\ccNjsSLI.s 			page 24


 296              		.cfi_endproc
 297              	.LFE35:
 299              		.section	.text.u8g2_font_calc_vref_center,"ax",%progbits
 300              		.align	1
 301              		.global	u8g2_font_calc_vref_center
 302              		.syntax unified
 303              		.thumb
 304              		.thumb_func
 305              		.fpu softvfp
 307              	u8g2_font_calc_vref_center:
 308              	.LVL32:
 309              	.LFB37:
1006:Drivers/u8g2_csrc/u8g2_font.c **** 
1007:Drivers/u8g2_csrc/u8g2_font.c **** void u8g2_SetFontPosTop(u8g2_t *u8g2)
1008:Drivers/u8g2_csrc/u8g2_font.c **** {
1009:Drivers/u8g2_csrc/u8g2_font.c ****   u8g2->font_calc_vref = u8g2_font_calc_vref_top;
1010:Drivers/u8g2_csrc/u8g2_font.c **** }
1011:Drivers/u8g2_csrc/u8g2_font.c **** 
1012:Drivers/u8g2_csrc/u8g2_font.c **** u8g2_uint_t u8g2_font_calc_vref_center(u8g2_t *u8g2)
1013:Drivers/u8g2_csrc/u8g2_font.c **** {
 310              		.loc 1 1013 1 is_stmt 1 view -0
 311              		.cfi_startproc
 312              		@ args = 0, pretend = 0, frame = 0
 313              		@ frame_needed = 0, uses_anonymous_args = 0
 314              		@ link register save eliminated.
1014:Drivers/u8g2_csrc/u8g2_font.c ****   int8_t tmp;
 315              		.loc 1 1014 3 view .LVU78
1015:Drivers/u8g2_csrc/u8g2_font.c ****   tmp = u8g2->font_ref_ascent;
 316              		.loc 1 1015 3 view .LVU79
 317              		.loc 1 1015 7 is_stmt 0 view .LVU80
 318 0000 90F98230 		ldrsb	r3, [r0, #130]
 319              	.LVL33:
1016:Drivers/u8g2_csrc/u8g2_font.c ****   tmp -= u8g2->font_ref_descent;
 320              		.loc 1 1016 3 is_stmt 1 view .LVU81
 321              		.loc 1 1016 14 is_stmt 0 view .LVU82
 322 0004 90F88300 		ldrb	r0, [r0, #131]	@ zero_extendqisi2
 323              	.LVL34:
 324              		.loc 1 1016 7 view .LVU83
 325 0008 1B1A     		subs	r3, r3, r0
 326              	.LVL35:
 327              		.loc 1 1016 7 view .LVU84
 328 000a 5AB2     		sxtb	r2, r3
 329              	.LVL36:
1017:Drivers/u8g2_csrc/u8g2_font.c ****   tmp /= 2;
 330              		.loc 1 1017 3 is_stmt 1 view .LVU85
 331              		.loc 1 1017 7 is_stmt 0 view .LVU86
 332 000c C3F3C013 		ubfx	r3, r3, #7, #1
 333 0010 1344     		add	r3, r3, r2
 334              	.LVL37:
1018:Drivers/u8g2_csrc/u8g2_font.c ****   tmp += u8g2->font_ref_descent;  
 335              		.loc 1 1018 3 is_stmt 1 view .LVU87
 336              		.loc 1 1018 7 is_stmt 0 view .LVU88
 337 0012 00EB6300 		add	r0, r0, r3, asr #1
 338              	.LVL38:
1019:Drivers/u8g2_csrc/u8g2_font.c ****   return tmp;
 339              		.loc 1 1019 3 is_stmt 1 view .LVU89
1020:Drivers/u8g2_csrc/u8g2_font.c **** }
ARM GAS  C:\Users\25339\AppData\Local\Temp\ccNjsSLI.s 			page 25


 340              		.loc 1 1020 1 is_stmt 0 view .LVU90
 341 0016 C0B2     		uxtb	r0, r0
 342              		.loc 1 1020 1 view .LVU91
 343 0018 7047     		bx	lr
 344              		.cfi_endproc
 345              	.LFE37:
 347              		.section	.text.u8g2_read_font_info,"ax",%progbits
 348              		.align	1
 349              		.global	u8g2_read_font_info
 350              		.syntax unified
 351              		.thumb
 352              		.thumb_func
 353              		.fpu softvfp
 355              	u8g2_read_font_info:
 356              	.LVL39:
 357              	.LFB2:
 132:Drivers/u8g2_csrc/u8g2_font.c ****   /* offset 0 */
 358              		.loc 1 132 1 is_stmt 1 view -0
 359              		.cfi_startproc
 360              		@ args = 0, pretend = 0, frame = 0
 361              		@ frame_needed = 0, uses_anonymous_args = 0
 132:Drivers/u8g2_csrc/u8g2_font.c ****   /* offset 0 */
 362              		.loc 1 132 1 is_stmt 0 view .LVU93
 363 0000 38B5     		push	{r3, r4, r5, lr}
 364              	.LCFI0:
 365              		.cfi_def_cfa_offset 16
 366              		.cfi_offset 3, -16
 367              		.cfi_offset 4, -12
 368              		.cfi_offset 5, -8
 369              		.cfi_offset 14, -4
 370 0002 0446     		mov	r4, r0
 371 0004 0D46     		mov	r5, r1
 134:Drivers/u8g2_csrc/u8g2_font.c ****   font_info->bbx_mode = u8g2_font_get_byte(font, 1);
 372              		.loc 1 134 3 is_stmt 1 view .LVU94
 134:Drivers/u8g2_csrc/u8g2_font.c ****   font_info->bbx_mode = u8g2_font_get_byte(font, 1);
 373              		.loc 1 134 26 is_stmt 0 view .LVU95
 374 0006 0021     		movs	r1, #0
 375              	.LVL40:
 134:Drivers/u8g2_csrc/u8g2_font.c ****   font_info->bbx_mode = u8g2_font_get_byte(font, 1);
 376              		.loc 1 134 26 view .LVU96
 377 0008 2846     		mov	r0, r5
 378              	.LVL41:
 134:Drivers/u8g2_csrc/u8g2_font.c ****   font_info->bbx_mode = u8g2_font_get_byte(font, 1);
 379              		.loc 1 134 26 view .LVU97
 380 000a FFF7FEFF 		bl	u8g2_font_get_byte
 381              	.LVL42:
 134:Drivers/u8g2_csrc/u8g2_font.c ****   font_info->bbx_mode = u8g2_font_get_byte(font, 1);
 382              		.loc 1 134 24 view .LVU98
 383 000e 2070     		strb	r0, [r4]
 135:Drivers/u8g2_csrc/u8g2_font.c ****   font_info->bits_per_0 = u8g2_font_get_byte(font, 2);
 384              		.loc 1 135 3 is_stmt 1 view .LVU99
 135:Drivers/u8g2_csrc/u8g2_font.c ****   font_info->bits_per_0 = u8g2_font_get_byte(font, 2);
 385              		.loc 1 135 25 is_stmt 0 view .LVU100
 386 0010 0121     		movs	r1, #1
 387 0012 2846     		mov	r0, r5
 388 0014 FFF7FEFF 		bl	u8g2_font_get_byte
 389              	.LVL43:
ARM GAS  C:\Users\25339\AppData\Local\Temp\ccNjsSLI.s 			page 26


 135:Drivers/u8g2_csrc/u8g2_font.c ****   font_info->bits_per_0 = u8g2_font_get_byte(font, 2);
 390              		.loc 1 135 23 view .LVU101
 391 0018 6070     		strb	r0, [r4, #1]
 136:Drivers/u8g2_csrc/u8g2_font.c ****   font_info->bits_per_1 = u8g2_font_get_byte(font, 3);
 392              		.loc 1 136 3 is_stmt 1 view .LVU102
 136:Drivers/u8g2_csrc/u8g2_font.c ****   font_info->bits_per_1 = u8g2_font_get_byte(font, 3);
 393              		.loc 1 136 27 is_stmt 0 view .LVU103
 394 001a 0221     		movs	r1, #2
 395 001c 2846     		mov	r0, r5
 396 001e FFF7FEFF 		bl	u8g2_font_get_byte
 397              	.LVL44:
 136:Drivers/u8g2_csrc/u8g2_font.c ****   font_info->bits_per_1 = u8g2_font_get_byte(font, 3);
 398              		.loc 1 136 25 view .LVU104
 399 0022 A070     		strb	r0, [r4, #2]
 137:Drivers/u8g2_csrc/u8g2_font.c ****   
 400              		.loc 1 137 3 is_stmt 1 view .LVU105
 137:Drivers/u8g2_csrc/u8g2_font.c ****   
 401              		.loc 1 137 27 is_stmt 0 view .LVU106
 402 0024 0321     		movs	r1, #3
 403 0026 2846     		mov	r0, r5
 404 0028 FFF7FEFF 		bl	u8g2_font_get_byte
 405              	.LVL45:
 137:Drivers/u8g2_csrc/u8g2_font.c ****   
 406              		.loc 1 137 25 view .LVU107
 407 002c E070     		strb	r0, [r4, #3]
 140:Drivers/u8g2_csrc/u8g2_font.c ****   font_info->bits_per_char_height = u8g2_font_get_byte(font, 5);
 408              		.loc 1 140 3 is_stmt 1 view .LVU108
 140:Drivers/u8g2_csrc/u8g2_font.c ****   font_info->bits_per_char_height = u8g2_font_get_byte(font, 5);
 409              		.loc 1 140 36 is_stmt 0 view .LVU109
 410 002e 0421     		movs	r1, #4
 411 0030 2846     		mov	r0, r5
 412 0032 FFF7FEFF 		bl	u8g2_font_get_byte
 413              	.LVL46:
 140:Drivers/u8g2_csrc/u8g2_font.c ****   font_info->bits_per_char_height = u8g2_font_get_byte(font, 5);
 414              		.loc 1 140 34 view .LVU110
 415 0036 2071     		strb	r0, [r4, #4]
 141:Drivers/u8g2_csrc/u8g2_font.c ****   font_info->bits_per_char_x = u8g2_font_get_byte(font, 6);
 416              		.loc 1 141 3 is_stmt 1 view .LVU111
 141:Drivers/u8g2_csrc/u8g2_font.c ****   font_info->bits_per_char_x = u8g2_font_get_byte(font, 6);
 417              		.loc 1 141 37 is_stmt 0 view .LVU112
 418 0038 0521     		movs	r1, #5
 419 003a 2846     		mov	r0, r5
 420 003c FFF7FEFF 		bl	u8g2_font_get_byte
 421              	.LVL47:
 141:Drivers/u8g2_csrc/u8g2_font.c ****   font_info->bits_per_char_x = u8g2_font_get_byte(font, 6);
 422              		.loc 1 141 35 view .LVU113
 423 0040 6071     		strb	r0, [r4, #5]
 142:Drivers/u8g2_csrc/u8g2_font.c ****   font_info->bits_per_char_y = u8g2_font_get_byte(font, 7);
 424              		.loc 1 142 3 is_stmt 1 view .LVU114
 142:Drivers/u8g2_csrc/u8g2_font.c ****   font_info->bits_per_char_y = u8g2_font_get_byte(font, 7);
 425              		.loc 1 142 32 is_stmt 0 view .LVU115
 426 0042 0621     		movs	r1, #6
 427 0044 2846     		mov	r0, r5
 428 0046 FFF7FEFF 		bl	u8g2_font_get_byte
 429              	.LVL48:
 142:Drivers/u8g2_csrc/u8g2_font.c ****   font_info->bits_per_char_y = u8g2_font_get_byte(font, 7);
 430              		.loc 1 142 30 view .LVU116
ARM GAS  C:\Users\25339\AppData\Local\Temp\ccNjsSLI.s 			page 27


 431 004a A071     		strb	r0, [r4, #6]
 143:Drivers/u8g2_csrc/u8g2_font.c ****   font_info->bits_per_delta_x = u8g2_font_get_byte(font, 8);
 432              		.loc 1 143 3 is_stmt 1 view .LVU117
 143:Drivers/u8g2_csrc/u8g2_font.c ****   font_info->bits_per_delta_x = u8g2_font_get_byte(font, 8);
 433              		.loc 1 143 32 is_stmt 0 view .LVU118
 434 004c 0721     		movs	r1, #7
 435 004e 2846     		mov	r0, r5
 436 0050 FFF7FEFF 		bl	u8g2_font_get_byte
 437              	.LVL49:
 143:Drivers/u8g2_csrc/u8g2_font.c ****   font_info->bits_per_delta_x = u8g2_font_get_byte(font, 8);
 438              		.loc 1 143 30 view .LVU119
 439 0054 E071     		strb	r0, [r4, #7]
 144:Drivers/u8g2_csrc/u8g2_font.c ****   
 440              		.loc 1 144 3 is_stmt 1 view .LVU120
 144:Drivers/u8g2_csrc/u8g2_font.c ****   
 441              		.loc 1 144 33 is_stmt 0 view .LVU121
 442 0056 0821     		movs	r1, #8
 443 0058 2846     		mov	r0, r5
 444 005a FFF7FEFF 		bl	u8g2_font_get_byte
 445              	.LVL50:
 144:Drivers/u8g2_csrc/u8g2_font.c ****   
 446              		.loc 1 144 31 view .LVU122
 447 005e 2072     		strb	r0, [r4, #8]
 147:Drivers/u8g2_csrc/u8g2_font.c ****   font_info->max_char_height = u8g2_font_get_byte(font, 10);
 448              		.loc 1 147 3 is_stmt 1 view .LVU123
 147:Drivers/u8g2_csrc/u8g2_font.c ****   font_info->max_char_height = u8g2_font_get_byte(font, 10);
 449              		.loc 1 147 31 is_stmt 0 view .LVU124
 450 0060 0921     		movs	r1, #9
 451 0062 2846     		mov	r0, r5
 452 0064 FFF7FEFF 		bl	u8g2_font_get_byte
 453              	.LVL51:
 147:Drivers/u8g2_csrc/u8g2_font.c ****   font_info->max_char_height = u8g2_font_get_byte(font, 10);
 454              		.loc 1 147 29 view .LVU125
 455 0068 6072     		strb	r0, [r4, #9]
 148:Drivers/u8g2_csrc/u8g2_font.c ****   font_info->x_offset = u8g2_font_get_byte(font, 11);
 456              		.loc 1 148 3 is_stmt 1 view .LVU126
 148:Drivers/u8g2_csrc/u8g2_font.c ****   font_info->x_offset = u8g2_font_get_byte(font, 11);
 457              		.loc 1 148 32 is_stmt 0 view .LVU127
 458 006a 0A21     		movs	r1, #10
 459 006c 2846     		mov	r0, r5
 460 006e FFF7FEFF 		bl	u8g2_font_get_byte
 461              	.LVL52:
 148:Drivers/u8g2_csrc/u8g2_font.c ****   font_info->x_offset = u8g2_font_get_byte(font, 11);
 462              		.loc 1 148 30 view .LVU128
 463 0072 A072     		strb	r0, [r4, #10]
 149:Drivers/u8g2_csrc/u8g2_font.c ****   font_info->y_offset = u8g2_font_get_byte(font, 12);
 464              		.loc 1 149 3 is_stmt 1 view .LVU129
 149:Drivers/u8g2_csrc/u8g2_font.c ****   font_info->y_offset = u8g2_font_get_byte(font, 12);
 465              		.loc 1 149 25 is_stmt 0 view .LVU130
 466 0074 0B21     		movs	r1, #11
 467 0076 2846     		mov	r0, r5
 468 0078 FFF7FEFF 		bl	u8g2_font_get_byte
 469              	.LVL53:
 149:Drivers/u8g2_csrc/u8g2_font.c ****   font_info->y_offset = u8g2_font_get_byte(font, 12);
 470              		.loc 1 149 23 view .LVU131
 471 007c E072     		strb	r0, [r4, #11]
 150:Drivers/u8g2_csrc/u8g2_font.c ****   
ARM GAS  C:\Users\25339\AppData\Local\Temp\ccNjsSLI.s 			page 28


 472              		.loc 1 150 3 is_stmt 1 view .LVU132
 150:Drivers/u8g2_csrc/u8g2_font.c ****   
 473              		.loc 1 150 25 is_stmt 0 view .LVU133
 474 007e 0C21     		movs	r1, #12
 475 0080 2846     		mov	r0, r5
 476 0082 FFF7FEFF 		bl	u8g2_font_get_byte
 477              	.LVL54:
 150:Drivers/u8g2_csrc/u8g2_font.c ****   
 478              		.loc 1 150 23 view .LVU134
 479 0086 2073     		strb	r0, [r4, #12]
 153:Drivers/u8g2_csrc/u8g2_font.c ****   font_info->descent_g = u8g2_font_get_byte(font, 14);
 480              		.loc 1 153 3 is_stmt 1 view .LVU135
 153:Drivers/u8g2_csrc/u8g2_font.c ****   font_info->descent_g = u8g2_font_get_byte(font, 14);
 481              		.loc 1 153 25 is_stmt 0 view .LVU136
 482 0088 0D21     		movs	r1, #13
 483 008a 2846     		mov	r0, r5
 484 008c FFF7FEFF 		bl	u8g2_font_get_byte
 485              	.LVL55:
 153:Drivers/u8g2_csrc/u8g2_font.c ****   font_info->descent_g = u8g2_font_get_byte(font, 14);
 486              		.loc 1 153 23 view .LVU137
 487 0090 6073     		strb	r0, [r4, #13]
 154:Drivers/u8g2_csrc/u8g2_font.c ****   font_info->ascent_para = u8g2_font_get_byte(font, 15);
 488              		.loc 1 154 3 is_stmt 1 view .LVU138
 154:Drivers/u8g2_csrc/u8g2_font.c ****   font_info->ascent_para = u8g2_font_get_byte(font, 15);
 489              		.loc 1 154 26 is_stmt 0 view .LVU139
 490 0092 0E21     		movs	r1, #14
 491 0094 2846     		mov	r0, r5
 492 0096 FFF7FEFF 		bl	u8g2_font_get_byte
 493              	.LVL56:
 154:Drivers/u8g2_csrc/u8g2_font.c ****   font_info->ascent_para = u8g2_font_get_byte(font, 15);
 494              		.loc 1 154 24 view .LVU140
 495 009a A073     		strb	r0, [r4, #14]
 155:Drivers/u8g2_csrc/u8g2_font.c ****   font_info->descent_para = u8g2_font_get_byte(font, 16);
 496              		.loc 1 155 3 is_stmt 1 view .LVU141
 155:Drivers/u8g2_csrc/u8g2_font.c ****   font_info->descent_para = u8g2_font_get_byte(font, 16);
 497              		.loc 1 155 28 is_stmt 0 view .LVU142
 498 009c 0F21     		movs	r1, #15
 499 009e 2846     		mov	r0, r5
 500 00a0 FFF7FEFF 		bl	u8g2_font_get_byte
 501              	.LVL57:
 155:Drivers/u8g2_csrc/u8g2_font.c ****   font_info->descent_para = u8g2_font_get_byte(font, 16);
 502              		.loc 1 155 26 view .LVU143
 503 00a4 E073     		strb	r0, [r4, #15]
 156:Drivers/u8g2_csrc/u8g2_font.c ****   
 504              		.loc 1 156 3 is_stmt 1 view .LVU144
 156:Drivers/u8g2_csrc/u8g2_font.c ****   
 505              		.loc 1 156 29 is_stmt 0 view .LVU145
 506 00a6 1021     		movs	r1, #16
 507 00a8 2846     		mov	r0, r5
 508 00aa FFF7FEFF 		bl	u8g2_font_get_byte
 509              	.LVL58:
 156:Drivers/u8g2_csrc/u8g2_font.c ****   
 510              		.loc 1 156 27 view .LVU146
 511 00ae 2074     		strb	r0, [r4, #16]
 159:Drivers/u8g2_csrc/u8g2_font.c ****   font_info->start_pos_lower_a = u8g2_font_get_word(font, 19); 
 512              		.loc 1 159 3 is_stmt 1 view .LVU147
 159:Drivers/u8g2_csrc/u8g2_font.c ****   font_info->start_pos_lower_a = u8g2_font_get_word(font, 19); 
ARM GAS  C:\Users\25339\AppData\Local\Temp\ccNjsSLI.s 			page 29


 513              		.loc 1 159 34 is_stmt 0 view .LVU148
 514 00b0 1121     		movs	r1, #17
 515 00b2 2846     		mov	r0, r5
 516 00b4 FFF7FEFF 		bl	u8g2_font_get_word
 517              	.LVL59:
 159:Drivers/u8g2_csrc/u8g2_font.c ****   font_info->start_pos_lower_a = u8g2_font_get_word(font, 19); 
 518              		.loc 1 159 32 view .LVU149
 519 00b8 6082     		strh	r0, [r4, #18]	@ movhi
 160:Drivers/u8g2_csrc/u8g2_font.c ****   
 520              		.loc 1 160 3 is_stmt 1 view .LVU150
 160:Drivers/u8g2_csrc/u8g2_font.c ****   
 521              		.loc 1 160 34 is_stmt 0 view .LVU151
 522 00ba 1321     		movs	r1, #19
 523 00bc 2846     		mov	r0, r5
 524 00be FFF7FEFF 		bl	u8g2_font_get_word
 525              	.LVL60:
 160:Drivers/u8g2_csrc/u8g2_font.c ****   
 526              		.loc 1 160 32 view .LVU152
 527 00c2 A082     		strh	r0, [r4, #20]	@ movhi
 164:Drivers/u8g2_csrc/u8g2_font.c **** #endif
 528              		.loc 1 164 3 is_stmt 1 view .LVU153
 164:Drivers/u8g2_csrc/u8g2_font.c **** #endif
 529              		.loc 1 164 34 is_stmt 0 view .LVU154
 530 00c4 1521     		movs	r1, #21
 531 00c6 2846     		mov	r0, r5
 532 00c8 FFF7FEFF 		bl	u8g2_font_get_word
 533              	.LVL61:
 164:Drivers/u8g2_csrc/u8g2_font.c **** #endif
 534              		.loc 1 164 32 view .LVU155
 535 00cc E082     		strh	r0, [r4, #22]	@ movhi
 166:Drivers/u8g2_csrc/u8g2_font.c **** 
 536              		.loc 1 166 1 view .LVU156
 537 00ce 38BD     		pop	{r3, r4, r5, pc}
 166:Drivers/u8g2_csrc/u8g2_font.c **** 
 538              		.loc 1 166 1 view .LVU157
 539              		.cfi_endproc
 540              	.LFE2:
 542              		.section	.text.u8g2_GetFontSize,"ax",%progbits
 543              		.align	1
 544              		.global	u8g2_GetFontSize
 545              		.syntax unified
 546              		.thumb
 547              		.thumb_func
 548              		.fpu softvfp
 550              	u8g2_GetFontSize:
 551              	.LVL62:
 552              	.LFB3:
 171:Drivers/u8g2_csrc/u8g2_font.c ****   uint16_t e;
 553              		.loc 1 171 1 is_stmt 1 view -0
 554              		.cfi_startproc
 555              		@ args = 0, pretend = 0, frame = 0
 556              		@ frame_needed = 0, uses_anonymous_args = 0
 171:Drivers/u8g2_csrc/u8g2_font.c ****   uint16_t e;
 557              		.loc 1 171 1 is_stmt 0 view .LVU159
 558 0000 38B5     		push	{r3, r4, r5, lr}
 559              	.LCFI1:
 560              		.cfi_def_cfa_offset 16
ARM GAS  C:\Users\25339\AppData\Local\Temp\ccNjsSLI.s 			page 30


 561              		.cfi_offset 3, -16
 562              		.cfi_offset 4, -12
 563              		.cfi_offset 5, -8
 564              		.cfi_offset 14, -4
 565 0002 0546     		mov	r5, r0
 172:Drivers/u8g2_csrc/u8g2_font.c ****   const uint8_t *font = font_arg;
 566              		.loc 1 172 3 is_stmt 1 view .LVU160
 173:Drivers/u8g2_csrc/u8g2_font.c ****   font += U8G2_FONT_DATA_STRUCT_SIZE;
 567              		.loc 1 173 3 view .LVU161
 568              	.LVL63:
 174:Drivers/u8g2_csrc/u8g2_font.c ****   
 569              		.loc 1 174 3 view .LVU162
 174:Drivers/u8g2_csrc/u8g2_font.c ****   
 570              		.loc 1 174 8 is_stmt 0 view .LVU163
 571 0004 00F11703 		add	r3, r0, #23
 572              	.LVL64:
 573              	.L23:
 176:Drivers/u8g2_csrc/u8g2_font.c ****   {
 574              		.loc 1 176 3 is_stmt 1 view .LVU164
 178:Drivers/u8g2_csrc/u8g2_font.c ****       break;
 575              		.loc 1 178 5 view .LVU165
 178:Drivers/u8g2_csrc/u8g2_font.c ****       break;
 576              		.loc 1 178 10 is_stmt 0 view .LVU166
 577 0008 5A78     		ldrb	r2, [r3, #1]	@ zero_extendqisi2
 178:Drivers/u8g2_csrc/u8g2_font.c ****       break;
 578              		.loc 1 178 8 view .LVU167
 579 000a 0AB1     		cbz	r2, .L22
 180:Drivers/u8g2_csrc/u8g2_font.c ****   }
 580              		.loc 1 180 5 is_stmt 1 view .LVU168
 180:Drivers/u8g2_csrc/u8g2_font.c ****   }
 581              		.loc 1 180 10 is_stmt 0 view .LVU169
 582 000c 1344     		add	r3, r3, r2
 583              	.LVL65:
 176:Drivers/u8g2_csrc/u8g2_font.c ****   {
 584              		.loc 1 176 8 is_stmt 1 view .LVU170
 178:Drivers/u8g2_csrc/u8g2_font.c ****       break;
 585              		.loc 1 178 8 is_stmt 0 view .LVU171
 586 000e FBE7     		b	.L23
 587              	.L22:
 184:Drivers/u8g2_csrc/u8g2_font.c **** 
 588              		.loc 1 184 3 is_stmt 1 view .LVU172
 184:Drivers/u8g2_csrc/u8g2_font.c **** 
 589              		.loc 1 184 8 is_stmt 0 view .LVU173
 590 0010 9C1C     		adds	r4, r3, #2
 591              	.LVL66:
 187:Drivers/u8g2_csrc/u8g2_font.c ****   
 592              		.loc 1 187 3 is_stmt 1 view .LVU174
 187:Drivers/u8g2_csrc/u8g2_font.c ****   
 593              		.loc 1 187 11 is_stmt 0 view .LVU175
 594 0012 0021     		movs	r1, #0
 595 0014 2046     		mov	r0, r4
 596              	.LVL67:
 187:Drivers/u8g2_csrc/u8g2_font.c ****   
 597              		.loc 1 187 11 view .LVU176
 598 0016 FFF7FEFF 		bl	u8g2_font_get_word
 599              	.LVL68:
 187:Drivers/u8g2_csrc/u8g2_font.c ****   
ARM GAS  C:\Users\25339\AppData\Local\Temp\ccNjsSLI.s 			page 31


 600              		.loc 1 187 8 view .LVU177
 601 001a 2318     		adds	r3, r4, r0
 602              	.LVL69:
 603              	.L25:
 189:Drivers/u8g2_csrc/u8g2_font.c ****   {
 604              		.loc 1 189 3 is_stmt 1 view .LVU178
 191:Drivers/u8g2_csrc/u8g2_font.c ****     e <<= 8;
 605              		.loc 1 191 5 view .LVU179
 191:Drivers/u8g2_csrc/u8g2_font.c ****     e <<= 8;
 606              		.loc 1 191 7 is_stmt 0 view .LVU180
 607 001c 1978     		ldrb	r1, [r3]	@ zero_extendqisi2
 608              	.LVL70:
 192:Drivers/u8g2_csrc/u8g2_font.c ****     e |= u8x8_pgm_read( font + 1 );
 609              		.loc 1 192 5 is_stmt 1 view .LVU181
 193:Drivers/u8g2_csrc/u8g2_font.c ****     if ( e == 0 )
 610              		.loc 1 193 5 view .LVU182
 193:Drivers/u8g2_csrc/u8g2_font.c ****     if ( e == 0 )
 611              		.loc 1 193 10 is_stmt 0 view .LVU183
 612 001e 5A78     		ldrb	r2, [r3, #1]	@ zero_extendqisi2
 613              	.LVL71:
 194:Drivers/u8g2_csrc/u8g2_font.c ****       break;
 614              		.loc 1 194 5 is_stmt 1 view .LVU184
 194:Drivers/u8g2_csrc/u8g2_font.c ****       break;
 615              		.loc 1 194 8 is_stmt 0 view .LVU185
 616 0020 52EA0122 		orrs	r2, r2, r1, lsl #8
 617              	.LVL72:
 194:Drivers/u8g2_csrc/u8g2_font.c ****       break;
 618              		.loc 1 194 8 view .LVU186
 619 0024 02D0     		beq	.L24
 196:Drivers/u8g2_csrc/u8g2_font.c ****   }
 620              		.loc 1 196 5 is_stmt 1 view .LVU187
 196:Drivers/u8g2_csrc/u8g2_font.c ****   }
 621              		.loc 1 196 13 is_stmt 0 view .LVU188
 622 0026 9A78     		ldrb	r2, [r3, #2]	@ zero_extendqisi2
 196:Drivers/u8g2_csrc/u8g2_font.c ****   }
 623              		.loc 1 196 10 view .LVU189
 624 0028 1344     		add	r3, r3, r2
 625              	.LVL73:
 189:Drivers/u8g2_csrc/u8g2_font.c ****   {
 626              		.loc 1 189 8 is_stmt 1 view .LVU190
 191:Drivers/u8g2_csrc/u8g2_font.c ****     e <<= 8;
 627              		.loc 1 191 7 is_stmt 0 view .LVU191
 628 002a F7E7     		b	.L25
 629              	.LVL74:
 630              	.L24:
 199:Drivers/u8g2_csrc/u8g2_font.c **** }
 631              		.loc 1 199 3 is_stmt 1 view .LVU192
 199:Drivers/u8g2_csrc/u8g2_font.c **** }
 632              		.loc 1 199 16 is_stmt 0 view .LVU193
 633 002c 581B     		subs	r0, r3, r5
 200:Drivers/u8g2_csrc/u8g2_font.c **** 
 634              		.loc 1 200 1 view .LVU194
 635 002e 0230     		adds	r0, r0, #2
 636 0030 38BD     		pop	{r3, r4, r5, pc}
 200:Drivers/u8g2_csrc/u8g2_font.c **** 
 637              		.loc 1 200 1 view .LVU195
 638              		.cfi_endproc
ARM GAS  C:\Users\25339\AppData\Local\Temp\ccNjsSLI.s 			page 32


 639              	.LFE3:
 641              		.section	.text.u8g2_GetFontBBXWidth,"ax",%progbits
 642              		.align	1
 643              		.global	u8g2_GetFontBBXWidth
 644              		.syntax unified
 645              		.thumb
 646              		.thumb_func
 647              		.fpu softvfp
 649              	u8g2_GetFontBBXWidth:
 650              	.LVL75:
 651              	.LFB4:
 206:Drivers/u8g2_csrc/u8g2_font.c ****   return u8g2->font_info.max_char_width;		/* new font info structure */
 652              		.loc 1 206 1 is_stmt 1 view -0
 653              		.cfi_startproc
 654              		@ args = 0, pretend = 0, frame = 0
 655              		@ frame_needed = 0, uses_anonymous_args = 0
 656              		@ link register save eliminated.
 207:Drivers/u8g2_csrc/u8g2_font.c **** }
 657              		.loc 1 207 3 view .LVU197
 208:Drivers/u8g2_csrc/u8g2_font.c **** 
 658              		.loc 1 208 1 is_stmt 0 view .LVU198
 659 0000 90F87100 		ldrb	r0, [r0, #113]	@ zero_extendqisi2
 660              	.LVL76:
 208:Drivers/u8g2_csrc/u8g2_font.c **** 
 661              		.loc 1 208 1 view .LVU199
 662 0004 7047     		bx	lr
 663              		.cfi_endproc
 664              	.LFE4:
 666              		.section	.text.u8g2_GetFontBBXHeight,"ax",%progbits
 667              		.align	1
 668              		.global	u8g2_GetFontBBXHeight
 669              		.syntax unified
 670              		.thumb
 671              		.thumb_func
 672              		.fpu softvfp
 674              	u8g2_GetFontBBXHeight:
 675              	.LVL77:
 676              	.LFB5:
 211:Drivers/u8g2_csrc/u8g2_font.c ****   return u8g2->font_info.max_char_height;		/* new font info structure */
 677              		.loc 1 211 1 is_stmt 1 view -0
 678              		.cfi_startproc
 679              		@ args = 0, pretend = 0, frame = 0
 680              		@ frame_needed = 0, uses_anonymous_args = 0
 681              		@ link register save eliminated.
 212:Drivers/u8g2_csrc/u8g2_font.c **** }
 682              		.loc 1 212 3 view .LVU201
 213:Drivers/u8g2_csrc/u8g2_font.c **** 
 683              		.loc 1 213 1 is_stmt 0 view .LVU202
 684 0000 90F87200 		ldrb	r0, [r0, #114]	@ zero_extendqisi2
 685              	.LVL78:
 213:Drivers/u8g2_csrc/u8g2_font.c **** 
 686              		.loc 1 213 1 view .LVU203
 687 0004 7047     		bx	lr
 688              		.cfi_endproc
 689              	.LFE5:
 691              		.section	.text.u8g2_GetFontBBXOffX,"ax",%progbits
 692              		.align	1
ARM GAS  C:\Users\25339\AppData\Local\Temp\ccNjsSLI.s 			page 33


 693              		.global	u8g2_GetFontBBXOffX
 694              		.syntax unified
 695              		.thumb
 696              		.thumb_func
 697              		.fpu softvfp
 699              	u8g2_GetFontBBXOffX:
 700              	.LVL79:
 701              	.LFB6:
 217:Drivers/u8g2_csrc/u8g2_font.c ****   return u8g2->font_info.x_offset;		/* new font info structure */
 702              		.loc 1 217 1 is_stmt 1 view -0
 703              		.cfi_startproc
 704              		@ args = 0, pretend = 0, frame = 0
 705              		@ frame_needed = 0, uses_anonymous_args = 0
 706              		@ link register save eliminated.
 218:Drivers/u8g2_csrc/u8g2_font.c **** }
 707              		.loc 1 218 3 view .LVU205
 219:Drivers/u8g2_csrc/u8g2_font.c **** 
 708              		.loc 1 219 1 is_stmt 0 view .LVU206
 709 0000 90F97300 		ldrsb	r0, [r0, #115]
 710              	.LVL80:
 219:Drivers/u8g2_csrc/u8g2_font.c **** 
 711              		.loc 1 219 1 view .LVU207
 712 0004 7047     		bx	lr
 713              		.cfi_endproc
 714              	.LFE6:
 716              		.section	.text.u8g2_GetFontBBXOffY,"ax",%progbits
 717              		.align	1
 718              		.global	u8g2_GetFontBBXOffY
 719              		.syntax unified
 720              		.thumb
 721              		.thumb_func
 722              		.fpu softvfp
 724              	u8g2_GetFontBBXOffY:
 725              	.LVL81:
 726              	.LFB7:
 223:Drivers/u8g2_csrc/u8g2_font.c ****   return u8g2->font_info.y_offset;		/* new font info structure */
 727              		.loc 1 223 1 is_stmt 1 view -0
 728              		.cfi_startproc
 729              		@ args = 0, pretend = 0, frame = 0
 730              		@ frame_needed = 0, uses_anonymous_args = 0
 731              		@ link register save eliminated.
 224:Drivers/u8g2_csrc/u8g2_font.c **** }
 732              		.loc 1 224 3 view .LVU209
 225:Drivers/u8g2_csrc/u8g2_font.c **** 
 733              		.loc 1 225 1 is_stmt 0 view .LVU210
 734 0000 90F97400 		ldrsb	r0, [r0, #116]
 735              	.LVL82:
 225:Drivers/u8g2_csrc/u8g2_font.c **** 
 736              		.loc 1 225 1 view .LVU211
 737 0004 7047     		bx	lr
 738              		.cfi_endproc
 739              	.LFE7:
 741              		.section	.text.u8g2_GetFontCapitalAHeight,"ax",%progbits
 742              		.align	1
 743              		.global	u8g2_GetFontCapitalAHeight
 744              		.syntax unified
 745              		.thumb
ARM GAS  C:\Users\25339\AppData\Local\Temp\ccNjsSLI.s 			page 34


 746              		.thumb_func
 747              		.fpu softvfp
 749              	u8g2_GetFontCapitalAHeight:
 750              	.LVL83:
 751              	.LFB8:
 229:Drivers/u8g2_csrc/u8g2_font.c ****   return u8g2->font_info.ascent_A;		/* new font info structure */
 752              		.loc 1 229 1 is_stmt 1 view -0
 753              		.cfi_startproc
 754              		@ args = 0, pretend = 0, frame = 0
 755              		@ frame_needed = 0, uses_anonymous_args = 0
 756              		@ link register save eliminated.
 230:Drivers/u8g2_csrc/u8g2_font.c **** }
 757              		.loc 1 230 3 view .LVU213
 231:Drivers/u8g2_csrc/u8g2_font.c **** 
 758              		.loc 1 231 1 is_stmt 0 view .LVU214
 759 0000 90F87500 		ldrb	r0, [r0, #117]	@ zero_extendqisi2
 760              	.LVL84:
 231:Drivers/u8g2_csrc/u8g2_font.c **** 
 761              		.loc 1 231 1 view .LVU215
 762 0004 7047     		bx	lr
 763              		.cfi_endproc
 764              	.LFE8:
 766              		.section	.text.u8g2_font_decode_get_unsigned_bits,"ax",%progbits
 767              		.align	1
 768              		.global	u8g2_font_decode_get_unsigned_bits
 769              		.syntax unified
 770              		.thumb
 771              		.thumb_func
 772              		.fpu softvfp
 774              	u8g2_font_decode_get_unsigned_bits:
 775              	.LVL85:
 776              	.LFB9:
 238:Drivers/u8g2_csrc/u8g2_font.c ****   uint8_t val;
 777              		.loc 1 238 1 is_stmt 1 view -0
 778              		.cfi_startproc
 779              		@ args = 0, pretend = 0, frame = 0
 780              		@ frame_needed = 0, uses_anonymous_args = 0
 781              		@ link register save eliminated.
 238:Drivers/u8g2_csrc/u8g2_font.c ****   uint8_t val;
 782              		.loc 1 238 1 is_stmt 0 view .LVU217
 783 0000 70B4     		push	{r4, r5, r6}
 784              	.LCFI2:
 785              		.cfi_def_cfa_offset 12
 786              		.cfi_offset 4, -12
 787              		.cfi_offset 5, -8
 788              		.cfi_offset 6, -4
 239:Drivers/u8g2_csrc/u8g2_font.c ****   uint8_t bit_pos = f->decode_bit_pos;
 789              		.loc 1 239 3 is_stmt 1 view .LVU218
 240:Drivers/u8g2_csrc/u8g2_font.c ****   uint8_t bit_pos_plus_cnt;
 790              		.loc 1 240 3 view .LVU219
 240:Drivers/u8g2_csrc/u8g2_font.c ****   uint8_t bit_pos_plus_cnt;
 791              		.loc 1 240 11 is_stmt 0 view .LVU220
 792 0002 847A     		ldrb	r4, [r0, #10]	@ zero_extendqisi2
 793              	.LVL86:
 241:Drivers/u8g2_csrc/u8g2_font.c ****   
 794              		.loc 1 241 3 is_stmt 1 view .LVU221
 244:Drivers/u8g2_csrc/u8g2_font.c ****   
ARM GAS  C:\Users\25339\AppData\Local\Temp\ccNjsSLI.s 			page 35


 795              		.loc 1 244 3 view .LVU222
 244:Drivers/u8g2_csrc/u8g2_font.c ****   
 796              		.loc 1 244 9 is_stmt 0 view .LVU223
 797 0004 0668     		ldr	r6, [r0]
 244:Drivers/u8g2_csrc/u8g2_font.c ****   
 798              		.loc 1 244 7 view .LVU224
 799 0006 3278     		ldrb	r2, [r6]	@ zero_extendqisi2
 800              	.LVL87:
 246:Drivers/u8g2_csrc/u8g2_font.c ****   bit_pos_plus_cnt = bit_pos;
 801              		.loc 1 246 3 is_stmt 1 view .LVU225
 246:Drivers/u8g2_csrc/u8g2_font.c ****   bit_pos_plus_cnt = bit_pos;
 802              		.loc 1 246 7 is_stmt 0 view .LVU226
 803 0008 42FA04F5 		asr	r5, r2, r4
 804 000c EAB2     		uxtb	r2, r5
 805              	.LVL88:
 247:Drivers/u8g2_csrc/u8g2_font.c ****   bit_pos_plus_cnt += cnt;
 806              		.loc 1 247 3 is_stmt 1 view .LVU227
 248:Drivers/u8g2_csrc/u8g2_font.c ****   if ( bit_pos_plus_cnt >= 8 )
 807              		.loc 1 248 3 view .LVU228
 248:Drivers/u8g2_csrc/u8g2_font.c ****   if ( bit_pos_plus_cnt >= 8 )
 808              		.loc 1 248 20 is_stmt 0 view .LVU229
 809 000e 6318     		adds	r3, r4, r1
 810 0010 DBB2     		uxtb	r3, r3
 811              	.LVL89:
 249:Drivers/u8g2_csrc/u8g2_font.c ****   {
 812              		.loc 1 249 3 is_stmt 1 view .LVU230
 249:Drivers/u8g2_csrc/u8g2_font.c ****   {
 813              		.loc 1 249 6 is_stmt 0 view .LVU231
 814 0012 072B     		cmp	r3, #7
 815 0014 0AD9     		bls	.L33
 816              	.LBB2:
 251:Drivers/u8g2_csrc/u8g2_font.c ****     s -= bit_pos;
 817              		.loc 1 251 5 is_stmt 1 view .LVU232
 818              	.LVL90:
 252:Drivers/u8g2_csrc/u8g2_font.c ****     f->decode_ptr++;
 819              		.loc 1 252 5 view .LVU233
 252:Drivers/u8g2_csrc/u8g2_font.c ****     f->decode_ptr++;
 820              		.loc 1 252 7 is_stmt 0 view .LVU234
 821 0016 C4F10804 		rsb	r4, r4, #8
 822              	.LVL91:
 252:Drivers/u8g2_csrc/u8g2_font.c ****     f->decode_ptr++;
 823              		.loc 1 252 7 view .LVU235
 824 001a E4B2     		uxtb	r4, r4
 825              	.LVL92:
 253:Drivers/u8g2_csrc/u8g2_font.c ****     //val |= *(f->decode_ptr) << (8-bit_pos);
 826              		.loc 1 253 5 is_stmt 1 view .LVU236
 253:Drivers/u8g2_csrc/u8g2_font.c ****     //val |= *(f->decode_ptr) << (8-bit_pos);
 827              		.loc 1 253 18 is_stmt 0 view .LVU237
 828 001c 721C     		adds	r2, r6, #1
 829              	.LVL93:
 253:Drivers/u8g2_csrc/u8g2_font.c ****     //val |= *(f->decode_ptr) << (8-bit_pos);
 830              		.loc 1 253 18 view .LVU238
 831 001e 0260     		str	r2, [r0]
 255:Drivers/u8g2_csrc/u8g2_font.c ****     //bit_pos -= 8;
 832              		.loc 1 255 5 is_stmt 1 view .LVU239
 255:Drivers/u8g2_csrc/u8g2_font.c ****     //bit_pos -= 8;
 833              		.loc 1 255 12 is_stmt 0 view .LVU240
ARM GAS  C:\Users\25339\AppData\Local\Temp\ccNjsSLI.s 			page 36


 834 0020 7278     		ldrb	r2, [r6, #1]	@ zero_extendqisi2
 255:Drivers/u8g2_csrc/u8g2_font.c ****     //bit_pos -= 8;
 835              		.loc 1 255 43 view .LVU241
 836 0022 A240     		lsls	r2, r2, r4
 255:Drivers/u8g2_csrc/u8g2_font.c ****     //bit_pos -= 8;
 837              		.loc 1 255 9 view .LVU242
 838 0024 2A43     		orrs	r2, r2, r5
 839 0026 D2B2     		uxtb	r2, r2
 840              	.LVL94:
 257:Drivers/u8g2_csrc/u8g2_font.c ****   }
 841              		.loc 1 257 5 is_stmt 1 view .LVU243
 257:Drivers/u8g2_csrc/u8g2_font.c ****   }
 842              		.loc 1 257 22 is_stmt 0 view .LVU244
 843 0028 083B     		subs	r3, r3, #8
 844              	.LVL95:
 257:Drivers/u8g2_csrc/u8g2_font.c ****   }
 845              		.loc 1 257 22 view .LVU245
 846 002a DBB2     		uxtb	r3, r3
 847              	.LVL96:
 848              	.L33:
 257:Drivers/u8g2_csrc/u8g2_font.c ****   }
 849              		.loc 1 257 22 view .LVU246
 850              	.LBE2:
 259:Drivers/u8g2_csrc/u8g2_font.c ****   //bit_pos += cnt;
 851              		.loc 1 259 3 is_stmt 1 view .LVU247
 259:Drivers/u8g2_csrc/u8g2_font.c ****   //bit_pos += cnt;
 852              		.loc 1 259 7 is_stmt 0 view .LVU248
 853 002c 4FF0FF34 		mov	r4, #-1
 854 0030 04FA01F1 		lsl	r1, r4, r1
 855              	.LVL97:
 262:Drivers/u8g2_csrc/u8g2_font.c ****   return val;
 856              		.loc 1 262 3 is_stmt 1 view .LVU249
 262:Drivers/u8g2_csrc/u8g2_font.c ****   return val;
 857              		.loc 1 262 21 is_stmt 0 view .LVU250
 858 0034 8372     		strb	r3, [r0, #10]
 859              	.LVL98:
 263:Drivers/u8g2_csrc/u8g2_font.c **** }
 860              		.loc 1 263 3 is_stmt 1 view .LVU251
 264:Drivers/u8g2_csrc/u8g2_font.c **** 
 861              		.loc 1 264 1 is_stmt 0 view .LVU252
 862 0036 22EA0100 		bic	r0, r2, r1
 863              	.LVL99:
 264:Drivers/u8g2_csrc/u8g2_font.c **** 
 864              		.loc 1 264 1 view .LVU253
 865 003a 70BC     		pop	{r4, r5, r6}
 866              	.LCFI3:
 867              		.cfi_restore 6
 868              		.cfi_restore 5
 869              		.cfi_restore 4
 870              		.cfi_def_cfa_offset 0
 871 003c 7047     		bx	lr
 872              		.cfi_endproc
 873              	.LFE9:
 875              		.section	.text.u8g2_font_setup_decode,"ax",%progbits
 876              		.align	1
 877              		.syntax unified
 878              		.thumb
ARM GAS  C:\Users\25339\AppData\Local\Temp\ccNjsSLI.s 			page 37


 879              		.thumb_func
 880              		.fpu softvfp
 882              	u8g2_font_setup_decode:
 883              	.LVL100:
 884              	.LFB14:
 454:Drivers/u8g2_csrc/u8g2_font.c ****   u8g2_font_decode_t *decode = &(u8g2->font_decode);
 885              		.loc 1 454 1 is_stmt 1 view -0
 886              		.cfi_startproc
 887              		@ args = 0, pretend = 0, frame = 0
 888              		@ frame_needed = 0, uses_anonymous_args = 0
 454:Drivers/u8g2_csrc/u8g2_font.c ****   u8g2_font_decode_t *decode = &(u8g2->font_decode);
 889              		.loc 1 454 1 is_stmt 0 view .LVU255
 890 0000 38B5     		push	{r3, r4, r5, lr}
 891              	.LCFI4:
 892              		.cfi_def_cfa_offset 16
 893              		.cfi_offset 3, -16
 894              		.cfi_offset 4, -12
 895              		.cfi_offset 5, -8
 896              		.cfi_offset 14, -4
 897 0002 0446     		mov	r4, r0
 455:Drivers/u8g2_csrc/u8g2_font.c ****   decode->decode_ptr = glyph_data;
 898              		.loc 1 455 3 is_stmt 1 view .LVU256
 455:Drivers/u8g2_csrc/u8g2_font.c ****   decode->decode_ptr = glyph_data;
 899              		.loc 1 455 23 is_stmt 0 view .LVU257
 900 0004 00F15805 		add	r5, r0, #88
 901              	.LVL101:
 456:Drivers/u8g2_csrc/u8g2_font.c ****   decode->decode_bit_pos = 0;
 902              		.loc 1 456 3 is_stmt 1 view .LVU258
 456:Drivers/u8g2_csrc/u8g2_font.c ****   decode->decode_bit_pos = 0;
 903              		.loc 1 456 22 is_stmt 0 view .LVU259
 904 0008 8165     		str	r1, [r0, #88]
 457:Drivers/u8g2_csrc/u8g2_font.c ****   
 905              		.loc 1 457 3 is_stmt 1 view .LVU260
 457:Drivers/u8g2_csrc/u8g2_font.c ****   
 906              		.loc 1 457 26 is_stmt 0 view .LVU261
 907 000a 0023     		movs	r3, #0
 908 000c 80F86230 		strb	r3, [r0, #98]
 465:Drivers/u8g2_csrc/u8g2_font.c ****   decode->glyph_height = u8g2_font_decode_get_unsigned_bits(decode,u8g2->font_info.bits_per_char_he
 909              		.loc 1 465 3 is_stmt 1 view .LVU262
 465:Drivers/u8g2_csrc/u8g2_font.c ****   decode->glyph_height = u8g2_font_decode_get_unsigned_bits(decode,u8g2->font_info.bits_per_char_he
 910              		.loc 1 465 25 is_stmt 0 view .LVU263
 911 0010 90F86C10 		ldrb	r1, [r0, #108]	@ zero_extendqisi2
 912              	.LVL102:
 465:Drivers/u8g2_csrc/u8g2_font.c ****   decode->glyph_height = u8g2_font_decode_get_unsigned_bits(decode,u8g2->font_info.bits_per_char_he
 913              		.loc 1 465 25 view .LVU264
 914 0014 2846     		mov	r0, r5
 915              	.LVL103:
 465:Drivers/u8g2_csrc/u8g2_font.c ****   decode->glyph_height = u8g2_font_decode_get_unsigned_bits(decode,u8g2->font_info.bits_per_char_he
 916              		.loc 1 465 25 view .LVU265
 917 0016 FFF7FEFF 		bl	u8g2_font_decode_get_unsigned_bits
 918              	.LVL104:
 465:Drivers/u8g2_csrc/u8g2_font.c ****   decode->glyph_height = u8g2_font_decode_get_unsigned_bits(decode,u8g2->font_info.bits_per_char_he
 919              		.loc 1 465 23 view .LVU266
 920 001a 84F86000 		strb	r0, [r4, #96]
 466:Drivers/u8g2_csrc/u8g2_font.c ****   
 921              		.loc 1 466 3 is_stmt 1 view .LVU267
 466:Drivers/u8g2_csrc/u8g2_font.c ****   
ARM GAS  C:\Users\25339\AppData\Local\Temp\ccNjsSLI.s 			page 38


 922              		.loc 1 466 26 is_stmt 0 view .LVU268
 923 001e 94F86D10 		ldrb	r1, [r4, #109]	@ zero_extendqisi2
 924 0022 2846     		mov	r0, r5
 925 0024 FFF7FEFF 		bl	u8g2_font_decode_get_unsigned_bits
 926              	.LVL105:
 466:Drivers/u8g2_csrc/u8g2_font.c ****   
 927              		.loc 1 466 24 view .LVU269
 928 0028 84F86100 		strb	r0, [r4, #97]
 468:Drivers/u8g2_csrc/u8g2_font.c ****   decode->bg_color = (decode->fg_color == 0 ? 1 : 0);
 929              		.loc 1 468 3 is_stmt 1 view .LVU270
 468:Drivers/u8g2_csrc/u8g2_font.c ****   decode->bg_color = (decode->fg_color == 0 ? 1 : 0);
 930              		.loc 1 468 26 is_stmt 0 view .LVU271
 931 002c 94F88630 		ldrb	r3, [r4, #134]	@ zero_extendqisi2
 468:Drivers/u8g2_csrc/u8g2_font.c ****   decode->bg_color = (decode->fg_color == 0 ? 1 : 0);
 932              		.loc 1 468 20 view .LVU272
 933 0030 84F86430 		strb	r3, [r4, #100]
 469:Drivers/u8g2_csrc/u8g2_font.c **** }
 934              		.loc 1 469 3 is_stmt 1 view .LVU273
 469:Drivers/u8g2_csrc/u8g2_font.c **** }
 935              		.loc 1 469 49 is_stmt 0 view .LVU274
 936 0034 B3FA83F3 		clz	r3, r3
 937 0038 5B09     		lsrs	r3, r3, #5
 469:Drivers/u8g2_csrc/u8g2_font.c **** }
 938              		.loc 1 469 20 view .LVU275
 939 003a 84F86530 		strb	r3, [r4, #101]
 470:Drivers/u8g2_csrc/u8g2_font.c **** 
 940              		.loc 1 470 1 view .LVU276
 941 003e 38BD     		pop	{r3, r4, r5, pc}
 470:Drivers/u8g2_csrc/u8g2_font.c **** 
 942              		.loc 1 470 1 view .LVU277
 943              		.cfi_endproc
 944              	.LFE14:
 946              		.section	.text.u8g2_font_decode_get_signed_bits,"ax",%progbits
 947              		.align	1
 948              		.global	u8g2_font_decode_get_signed_bits
 949              		.syntax unified
 950              		.thumb
 951              		.thumb_func
 952              		.fpu softvfp
 954              	u8g2_font_decode_get_signed_bits:
 955              	.LVL106:
 956              	.LFB10:
 283:Drivers/u8g2_csrc/u8g2_font.c ****   int8_t v, d;
 957              		.loc 1 283 1 is_stmt 1 view -0
 958              		.cfi_startproc
 959              		@ args = 0, pretend = 0, frame = 0
 960              		@ frame_needed = 0, uses_anonymous_args = 0
 283:Drivers/u8g2_csrc/u8g2_font.c ****   int8_t v, d;
 961              		.loc 1 283 1 is_stmt 0 view .LVU279
 962 0000 10B5     		push	{r4, lr}
 963              	.LCFI5:
 964              		.cfi_def_cfa_offset 8
 965              		.cfi_offset 4, -8
 966              		.cfi_offset 14, -4
 967 0002 0C46     		mov	r4, r1
 284:Drivers/u8g2_csrc/u8g2_font.c ****   v = (int8_t)u8g2_font_decode_get_unsigned_bits(f, cnt);
 968              		.loc 1 284 3 is_stmt 1 view .LVU280
ARM GAS  C:\Users\25339\AppData\Local\Temp\ccNjsSLI.s 			page 39


 285:Drivers/u8g2_csrc/u8g2_font.c ****   d = 1;
 969              		.loc 1 285 3 view .LVU281
 285:Drivers/u8g2_csrc/u8g2_font.c ****   d = 1;
 970              		.loc 1 285 15 is_stmt 0 view .LVU282
 971 0004 FFF7FEFF 		bl	u8g2_font_decode_get_unsigned_bits
 972              	.LVL107:
 286:Drivers/u8g2_csrc/u8g2_font.c ****   cnt--;
 973              		.loc 1 286 3 is_stmt 1 view .LVU283
 287:Drivers/u8g2_csrc/u8g2_font.c ****   d <<= cnt;
 974              		.loc 1 287 3 view .LVU284
 287:Drivers/u8g2_csrc/u8g2_font.c ****   d <<= cnt;
 975              		.loc 1 287 6 is_stmt 0 view .LVU285
 976 0008 013C     		subs	r4, r4, #1
 977 000a E4B2     		uxtb	r4, r4
 978              	.LVL108:
 288:Drivers/u8g2_csrc/u8g2_font.c ****   v -= d;
 979              		.loc 1 288 3 is_stmt 1 view .LVU286
 288:Drivers/u8g2_csrc/u8g2_font.c ****   v -= d;
 980              		.loc 1 288 5 is_stmt 0 view .LVU287
 981 000c 0123     		movs	r3, #1
 982 000e 03FA04F4 		lsl	r4, r3, r4
 983              	.LVL109:
 289:Drivers/u8g2_csrc/u8g2_font.c ****   return v;
 984              		.loc 1 289 3 is_stmt 1 view .LVU288
 289:Drivers/u8g2_csrc/u8g2_font.c ****   return v;
 985              		.loc 1 289 5 is_stmt 0 view .LVU289
 986 0012 001B     		subs	r0, r0, r4
 987              	.LVL110:
 290:Drivers/u8g2_csrc/u8g2_font.c ****   //return (int8_t)u8g2_font_decode_get_unsigned_bits(f, cnt) - ((1<<cnt)>>1);
 988              		.loc 1 290 3 is_stmt 1 view .LVU290
 292:Drivers/u8g2_csrc/u8g2_font.c **** 
 989              		.loc 1 292 1 is_stmt 0 view .LVU291
 990 0014 40B2     		sxtb	r0, r0
 292:Drivers/u8g2_csrc/u8g2_font.c **** 
 991              		.loc 1 292 1 view .LVU292
 992 0016 10BD     		pop	{r4, pc}
 292:Drivers/u8g2_csrc/u8g2_font.c **** 
 993              		.loc 1 292 1 view .LVU293
 994              		.cfi_endproc
 995              	.LFE10:
 997              		.section	.text.u8g2_font_decode_len,"ax",%progbits
 998              		.align	1
 999              		.global	u8g2_font_decode_len
 1000              		.syntax unified
 1001              		.thumb
 1002              		.thumb_func
 1003              		.fpu softvfp
 1005              	u8g2_font_decode_len:
 1006              	.LVL111:
 1007              	.LFB13:
 360:Drivers/u8g2_csrc/u8g2_font.c ****   uint8_t cnt;	/* total number of remaining pixels, which have to be drawn */
 1008              		.loc 1 360 1 is_stmt 1 view -0
 1009              		.cfi_startproc
 1010              		@ args = 0, pretend = 0, frame = 24
 1011              		@ frame_needed = 0, uses_anonymous_args = 0
 360:Drivers/u8g2_csrc/u8g2_font.c ****   uint8_t cnt;	/* total number of remaining pixels, which have to be drawn */
 1012              		.loc 1 360 1 is_stmt 0 view .LVU295
ARM GAS  C:\Users\25339\AppData\Local\Temp\ccNjsSLI.s 			page 40


 1013 0000 2DE9F04F 		push	{r4, r5, r6, r7, r8, r9, r10, fp, lr}
 1014              	.LCFI6:
 1015              		.cfi_def_cfa_offset 36
 1016              		.cfi_offset 4, -36
 1017              		.cfi_offset 5, -32
 1018              		.cfi_offset 6, -28
 1019              		.cfi_offset 7, -24
 1020              		.cfi_offset 8, -20
 1021              		.cfi_offset 9, -16
 1022              		.cfi_offset 10, -12
 1023              		.cfi_offset 11, -8
 1024              		.cfi_offset 14, -4
 1025 0004 89B0     		sub	sp, sp, #36
 1026              	.LCFI7:
 1027              		.cfi_def_cfa_offset 72
 1028 0006 0546     		mov	r5, r0
 1029 0008 8A46     		mov	r10, r1
 1030 000a 0792     		str	r2, [sp, #28]
 361:Drivers/u8g2_csrc/u8g2_font.c ****   uint8_t rem; 	/* remaining pixel to the right edge of the glyph */
 1031              		.loc 1 361 3 is_stmt 1 view .LVU296
 362:Drivers/u8g2_csrc/u8g2_font.c ****   uint8_t current;	/* number of pixels, which need to be drawn for the draw procedure */
 1032              		.loc 1 362 3 view .LVU297
 363:Drivers/u8g2_csrc/u8g2_font.c ****     /* current is either equal to cnt or equal to rem */
 1033              		.loc 1 363 3 view .LVU298
 367:Drivers/u8g2_csrc/u8g2_font.c ****   
 1034              		.loc 1 367 3 view .LVU299
 370:Drivers/u8g2_csrc/u8g2_font.c ****   
 1035              		.loc 1 370 3 view .LVU300
 372:Drivers/u8g2_csrc/u8g2_font.c ****   
 1036              		.loc 1 372 3 view .LVU301
 1037              	.LVL112:
 374:Drivers/u8g2_csrc/u8g2_font.c ****   
 1038              		.loc 1 374 3 view .LVU302
 377:Drivers/u8g2_csrc/u8g2_font.c ****   ly = decode->y;
 1039              		.loc 1 377 3 view .LVU303
 377:Drivers/u8g2_csrc/u8g2_font.c ****   ly = decode->y;
 1040              		.loc 1 377 14 is_stmt 0 view .LVU304
 1041 000c 90F95E40 		ldrsb	r4, [r0, #94]
 377:Drivers/u8g2_csrc/u8g2_font.c ****   ly = decode->y;
 1042              		.loc 1 377 6 view .LVU305
 1043 0010 5FFA84FB 		uxtb	fp, r4
 1044              	.LVL113:
 378:Drivers/u8g2_csrc/u8g2_font.c ****   
 1045              		.loc 1 378 3 is_stmt 1 view .LVU306
 378:Drivers/u8g2_csrc/u8g2_font.c ****   
 1046              		.loc 1 378 14 is_stmt 0 view .LVU307
 1047 0014 90F95F30 		ldrsb	r3, [r0, #95]
 378:Drivers/u8g2_csrc/u8g2_font.c ****   
 1048              		.loc 1 378 6 view .LVU308
 1049 0018 DBB2     		uxtb	r3, r3
 1050 001a 0393     		str	r3, [sp, #12]
 1051              	.LVL114:
 378:Drivers/u8g2_csrc/u8g2_font.c ****   
 1052              		.loc 1 378 6 view .LVU309
 1053 001c 19E0     		b	.L44
 1054              	.LVL115:
 1055              	.L45:
ARM GAS  C:\Users\25339\AppData\Local\Temp\ccNjsSLI.s 			page 41


 390:Drivers/u8g2_csrc/u8g2_font.c ****     
 1056              		.loc 1 390 15 view .LVU310
 1057 001e CDF814A0 		str	r10, [sp, #20]
 1058 0022 1FE0     		b	.L40
 1059              	.LVL116:
 1060              	.L47:
 412:Drivers/u8g2_csrc/u8g2_font.c ****       u8g2_DrawHVLine(u8g2, 
 1061              		.loc 1 412 7 is_stmt 1 view .LVU311
 412:Drivers/u8g2_csrc/u8g2_font.c ****       u8g2_DrawHVLine(u8g2, 
 1062              		.loc 1 412 32 is_stmt 0 view .LVU312
 1063 0024 95F86430 		ldrb	r3, [r5, #100]	@ zero_extendqisi2
 412:Drivers/u8g2_csrc/u8g2_font.c ****       u8g2_DrawHVLine(u8g2, 
 1064              		.loc 1 412 24 view .LVU313
 1065 0028 85F88630 		strb	r3, [r5, #134]
 413:Drivers/u8g2_csrc/u8g2_font.c **** 	x, 
 1066              		.loc 1 413 7 is_stmt 1 view .LVU314
 1067 002c 0097     		str	r7, [sp]
 1068 002e 059B     		ldr	r3, [sp, #20]
 1069 0030 0699     		ldr	r1, [sp, #24]
 1070 0032 2846     		mov	r0, r5
 1071 0034 FFF7FEFF 		bl	u8g2_DrawHVLine
 1072              	.LVL117:
 1073              	.L42:
 440:Drivers/u8g2_csrc/u8g2_font.c ****       break;
 1074              		.loc 1 440 5 view .LVU315
 440:Drivers/u8g2_csrc/u8g2_font.c ****       break;
 1075              		.loc 1 440 8 is_stmt 0 view .LVU316
 1076 0038 B245     		cmp	r10, r6
 1077 003a 3CD3     		bcc	.L43
 442:Drivers/u8g2_csrc/u8g2_font.c ****     lx = 0;
 1078              		.loc 1 442 5 is_stmt 1 view .LVU317
 442:Drivers/u8g2_csrc/u8g2_font.c ****     lx = 0;
 1079              		.loc 1 442 9 is_stmt 0 view .LVU318
 1080 003c ABEB0404 		sub	r4, fp, r4
 1081 0040 A244     		add	r10, r10, r4
 1082              	.LVL118:
 442:Drivers/u8g2_csrc/u8g2_font.c ****     lx = 0;
 1083              		.loc 1 442 9 view .LVU319
 1084 0042 5FFA8AFA 		uxtb	r10, r10
 1085              	.LVL119:
 443:Drivers/u8g2_csrc/u8g2_font.c ****     ly++;
 1086              		.loc 1 443 5 is_stmt 1 view .LVU320
 444:Drivers/u8g2_csrc/u8g2_font.c ****   }
 1087              		.loc 1 444 5 view .LVU321
 444:Drivers/u8g2_csrc/u8g2_font.c ****   }
 1088              		.loc 1 444 7 is_stmt 0 view .LVU322
 1089 0046 039B     		ldr	r3, [sp, #12]
 1090 0048 0133     		adds	r3, r3, #1
 1091 004a DBB2     		uxtb	r3, r3
 1092 004c 0393     		str	r3, [sp, #12]
 1093              	.LVL120:
 380:Drivers/u8g2_csrc/u8g2_font.c ****   {
 1094              		.loc 1 380 8 is_stmt 1 view .LVU323
 443:Drivers/u8g2_csrc/u8g2_font.c ****     ly++;
 1095              		.loc 1 443 8 is_stmt 0 view .LVU324
 1096 004e 4FF0000B 		mov	fp, #0
 1097              	.LVL121:
ARM GAS  C:\Users\25339\AppData\Local\Temp\ccNjsSLI.s 			page 42


 1098              	.L44:
 380:Drivers/u8g2_csrc/u8g2_font.c ****   {
 1099              		.loc 1 380 3 is_stmt 1 view .LVU325
 383:Drivers/u8g2_csrc/u8g2_font.c ****     rem -= lx;
 1100              		.loc 1 383 5 view .LVU326
 383:Drivers/u8g2_csrc/u8g2_font.c ****     rem -= lx;
 1101              		.loc 1 383 17 is_stmt 0 view .LVU327
 1102 0052 95F96040 		ldrsb	r4, [r5, #96]
 383:Drivers/u8g2_csrc/u8g2_font.c ****     rem -= lx;
 1103              		.loc 1 383 9 view .LVU328
 1104 0056 E4B2     		uxtb	r4, r4
 1105              	.LVL122:
 384:Drivers/u8g2_csrc/u8g2_font.c ****     
 1106              		.loc 1 384 5 is_stmt 1 view .LVU329
 384:Drivers/u8g2_csrc/u8g2_font.c ****     
 1107              		.loc 1 384 9 is_stmt 0 view .LVU330
 1108 0058 A4EB0B06 		sub	r6, r4, fp
 1109 005c F6B2     		uxtb	r6, r6
 1110              	.LVL123:
 388:Drivers/u8g2_csrc/u8g2_font.c ****     if ( cnt < rem )
 1111              		.loc 1 388 5 is_stmt 1 view .LVU331
 389:Drivers/u8g2_csrc/u8g2_font.c ****       current = cnt;
 1112              		.loc 1 389 5 view .LVU332
 389:Drivers/u8g2_csrc/u8g2_font.c ****       current = cnt;
 1113              		.loc 1 389 8 is_stmt 0 view .LVU333
 1114 005e B245     		cmp	r10, r6
 1115 0060 DDD3     		bcc	.L45
 388:Drivers/u8g2_csrc/u8g2_font.c ****     if ( cnt < rem )
 1116              		.loc 1 388 13 view .LVU334
 1117 0062 0596     		str	r6, [sp, #20]
 1118              	.L40:
 1119              	.LVL124:
 397:Drivers/u8g2_csrc/u8g2_font.c ****     y = decode->target_y;
 1120              		.loc 1 397 5 is_stmt 1 view .LVU335
 398:Drivers/u8g2_csrc/u8g2_font.c **** 
 1121              		.loc 1 398 5 view .LVU336
 398:Drivers/u8g2_csrc/u8g2_font.c **** 
 1122              		.loc 1 398 7 is_stmt 0 view .LVU337
 1123 0064 95F85D90 		ldrb	r9, [r5, #93]	@ zero_extendqisi2
 1124              	.LVL125:
 402:Drivers/u8g2_csrc/u8g2_font.c ****     y = u8g2_add_vector_y(y, lx, ly, decode->dir);
 1125              		.loc 1 402 5 is_stmt 1 view .LVU338
 402:Drivers/u8g2_csrc/u8g2_font.c ****     y = u8g2_add_vector_y(y, lx, ly, decode->dir);
 1126              		.loc 1 402 9 is_stmt 0 view .LVU339
 1127 0068 4FFA8BF1 		sxtb	r1, fp
 1128 006c 9DF90C80 		ldrsb	r8, [sp, #12]
 1129 0070 95F86670 		ldrb	r7, [r5, #102]	@ zero_extendqisi2
 1130 0074 3B46     		mov	r3, r7
 1131 0076 4246     		mov	r2, r8
 1132 0078 0491     		str	r1, [sp, #16]
 1133 007a 95F85C00 		ldrb	r0, [r5, #92]	@ zero_extendqisi2
 1134 007e FFF7FEFF 		bl	u8g2_add_vector_x
 1135              	.LVL126:
 402:Drivers/u8g2_csrc/u8g2_font.c ****     y = u8g2_add_vector_y(y, lx, ly, decode->dir);
 1136              		.loc 1 402 9 view .LVU340
 1137 0082 0690     		str	r0, [sp, #24]
 1138              	.LVL127:
ARM GAS  C:\Users\25339\AppData\Local\Temp\ccNjsSLI.s 			page 43


 403:Drivers/u8g2_csrc/u8g2_font.c **** #else
 1139              		.loc 1 403 5 is_stmt 1 view .LVU341
 403:Drivers/u8g2_csrc/u8g2_font.c **** #else
 1140              		.loc 1 403 9 is_stmt 0 view .LVU342
 1141 0084 3B46     		mov	r3, r7
 1142 0086 4246     		mov	r2, r8
 1143 0088 0499     		ldr	r1, [sp, #16]
 1144 008a 4846     		mov	r0, r9
 1145 008c FFF7FEFF 		bl	u8g2_add_vector_y
 1146              	.LVL128:
 1147 0090 0246     		mov	r2, r0
 1148              	.LVL129:
 410:Drivers/u8g2_csrc/u8g2_font.c ****     {
 1149              		.loc 1 410 5 is_stmt 1 view .LVU343
 410:Drivers/u8g2_csrc/u8g2_font.c ****     {
 1150              		.loc 1 410 8 is_stmt 0 view .LVU344
 1151 0092 079B     		ldr	r3, [sp, #28]
 1152 0094 002B     		cmp	r3, #0
 1153 0096 C5D1     		bne	.L47
 424:Drivers/u8g2_csrc/u8g2_font.c ****     {
 1154              		.loc 1 424 10 is_stmt 1 view .LVU345
 424:Drivers/u8g2_csrc/u8g2_font.c ****     {
 1155              		.loc 1 424 21 is_stmt 0 view .LVU346
 1156 0098 95F86330 		ldrb	r3, [r5, #99]	@ zero_extendqisi2
 424:Drivers/u8g2_csrc/u8g2_font.c ****     {
 1157              		.loc 1 424 13 view .LVU347
 1158 009c 002B     		cmp	r3, #0
 1159 009e CBD1     		bne	.L42
 426:Drivers/u8g2_csrc/u8g2_font.c ****       u8g2_DrawHVLine(u8g2, 
 1160              		.loc 1 426 7 is_stmt 1 view .LVU348
 426:Drivers/u8g2_csrc/u8g2_font.c ****       u8g2_DrawHVLine(u8g2, 
 1161              		.loc 1 426 32 is_stmt 0 view .LVU349
 1162 00a0 95F86530 		ldrb	r3, [r5, #101]	@ zero_extendqisi2
 426:Drivers/u8g2_csrc/u8g2_font.c ****       u8g2_DrawHVLine(u8g2, 
 1163              		.loc 1 426 24 view .LVU350
 1164 00a4 85F88630 		strb	r3, [r5, #134]
 427:Drivers/u8g2_csrc/u8g2_font.c **** 	x, 
 1165              		.loc 1 427 7 is_stmt 1 view .LVU351
 1166 00a8 0097     		str	r7, [sp]
 1167 00aa 059B     		ldr	r3, [sp, #20]
 1168 00ac 0699     		ldr	r1, [sp, #24]
 1169 00ae 2846     		mov	r0, r5
 1170 00b0 FFF7FEFF 		bl	u8g2_DrawHVLine
 1171              	.LVL130:
 427:Drivers/u8g2_csrc/u8g2_font.c **** 	x, 
 1172              		.loc 1 427 7 is_stmt 0 view .LVU352
 1173 00b4 C0E7     		b	.L42
 1174              	.L43:
 446:Drivers/u8g2_csrc/u8g2_font.c ****   
 1175              		.loc 1 446 3 is_stmt 1 view .LVU353
 446:Drivers/u8g2_csrc/u8g2_font.c ****   
 1176              		.loc 1 446 6 is_stmt 0 view .LVU354
 1177 00b6 0AEB0B04 		add	r4, r10, fp
 1178              	.LVL131:
 448:Drivers/u8g2_csrc/u8g2_font.c ****   decode->y = ly;
 1179              		.loc 1 448 3 is_stmt 1 view .LVU355
 448:Drivers/u8g2_csrc/u8g2_font.c ****   decode->y = ly;
ARM GAS  C:\Users\25339\AppData\Local\Temp\ccNjsSLI.s 			page 44


 1180              		.loc 1 448 13 is_stmt 0 view .LVU356
 1181 00ba 85F85E40 		strb	r4, [r5, #94]
 449:Drivers/u8g2_csrc/u8g2_font.c ****   
 1182              		.loc 1 449 3 is_stmt 1 view .LVU357
 449:Drivers/u8g2_csrc/u8g2_font.c ****   
 1183              		.loc 1 449 13 is_stmt 0 view .LVU358
 1184 00be 85F85F80 		strb	r8, [r5, #95]
 451:Drivers/u8g2_csrc/u8g2_font.c **** 
 1185              		.loc 1 451 1 view .LVU359
 1186 00c2 09B0     		add	sp, sp, #36
 1187              	.LCFI8:
 1188              		.cfi_def_cfa_offset 36
 1189              		@ sp needed
 1190 00c4 BDE8F08F 		pop	{r4, r5, r6, r7, r8, r9, r10, fp, pc}
 451:Drivers/u8g2_csrc/u8g2_font.c **** 
 1191              		.loc 1 451 1 view .LVU360
 1192              		.cfi_endproc
 1193              	.LFE13:
 1195              		.section	.text.u8g2_font_decode_glyph,"ax",%progbits
 1196              		.align	1
 1197              		.global	u8g2_font_decode_glyph
 1198              		.syntax unified
 1199              		.thumb
 1200              		.thumb_func
 1201              		.fpu softvfp
 1203              	u8g2_font_decode_glyph:
 1204              	.LVL132:
 1205              	.LFB15:
 488:Drivers/u8g2_csrc/u8g2_font.c ****   uint8_t a, b;
 1206              		.loc 1 488 1 is_stmt 1 view -0
 1207              		.cfi_startproc
 1208              		@ args = 0, pretend = 0, frame = 8
 1209              		@ frame_needed = 0, uses_anonymous_args = 0
 488:Drivers/u8g2_csrc/u8g2_font.c ****   uint8_t a, b;
 1210              		.loc 1 488 1 is_stmt 0 view .LVU362
 1211 0000 2DE9F04F 		push	{r4, r5, r6, r7, r8, r9, r10, fp, lr}
 1212              	.LCFI9:
 1213              		.cfi_def_cfa_offset 36
 1214              		.cfi_offset 4, -36
 1215              		.cfi_offset 5, -32
 1216              		.cfi_offset 6, -28
 1217              		.cfi_offset 7, -24
 1218              		.cfi_offset 8, -20
 1219              		.cfi_offset 9, -16
 1220              		.cfi_offset 10, -12
 1221              		.cfi_offset 11, -8
 1222              		.cfi_offset 14, -4
 1223 0004 85B0     		sub	sp, sp, #20
 1224              	.LCFI10:
 1225              		.cfi_def_cfa_offset 56
 1226 0006 0446     		mov	r4, r0
 489:Drivers/u8g2_csrc/u8g2_font.c ****   int8_t x, y;
 1227              		.loc 1 489 3 is_stmt 1 view .LVU363
 490:Drivers/u8g2_csrc/u8g2_font.c ****   int8_t d;
 1228              		.loc 1 490 3 view .LVU364
 491:Drivers/u8g2_csrc/u8g2_font.c ****   int8_t h;
 1229              		.loc 1 491 3 view .LVU365
ARM GAS  C:\Users\25339\AppData\Local\Temp\ccNjsSLI.s 			page 45


 492:Drivers/u8g2_csrc/u8g2_font.c ****   u8g2_font_decode_t *decode = &(u8g2->font_decode);
 1230              		.loc 1 492 3 view .LVU366
 493:Drivers/u8g2_csrc/u8g2_font.c ****     
 1231              		.loc 1 493 3 view .LVU367
 493:Drivers/u8g2_csrc/u8g2_font.c ****     
 1232              		.loc 1 493 23 is_stmt 0 view .LVU368
 1233 0008 00F15805 		add	r5, r0, #88
 1234              	.LVL133:
 495:Drivers/u8g2_csrc/u8g2_font.c ****   h = u8g2->font_decode.glyph_height;
 1235              		.loc 1 495 3 is_stmt 1 view .LVU369
 1236 000c FFF7FEFF 		bl	u8g2_font_setup_decode
 1237              	.LVL134:
 496:Drivers/u8g2_csrc/u8g2_font.c ****   
 1238              		.loc 1 496 3 view .LVU370
 496:Drivers/u8g2_csrc/u8g2_font.c ****   
 1239              		.loc 1 496 5 is_stmt 0 view .LVU371
 1240 0010 94F96170 		ldrsb	r7, [r4, #97]
 1241              	.LVL135:
 498:Drivers/u8g2_csrc/u8g2_font.c ****   y = u8g2_font_decode_get_signed_bits(decode, u8g2->font_info.bits_per_char_y);
 1242              		.loc 1 498 3 is_stmt 1 view .LVU372
 498:Drivers/u8g2_csrc/u8g2_font.c ****   y = u8g2_font_decode_get_signed_bits(decode, u8g2->font_info.bits_per_char_y);
 1243              		.loc 1 498 7 is_stmt 0 view .LVU373
 1244 0014 94F86E10 		ldrb	r1, [r4, #110]	@ zero_extendqisi2
 1245 0018 2846     		mov	r0, r5
 1246 001a FFF7FEFF 		bl	u8g2_font_decode_get_signed_bits
 1247              	.LVL136:
 1248 001e 8146     		mov	r9, r0
 1249              	.LVL137:
 499:Drivers/u8g2_csrc/u8g2_font.c ****   d = u8g2_font_decode_get_signed_bits(decode, u8g2->font_info.bits_per_delta_x);
 1250              		.loc 1 499 3 is_stmt 1 view .LVU374
 499:Drivers/u8g2_csrc/u8g2_font.c ****   d = u8g2_font_decode_get_signed_bits(decode, u8g2->font_info.bits_per_delta_x);
 1251              		.loc 1 499 7 is_stmt 0 view .LVU375
 1252 0020 94F86F10 		ldrb	r1, [r4, #111]	@ zero_extendqisi2
 1253 0024 2846     		mov	r0, r5
 1254 0026 FFF7FEFF 		bl	u8g2_font_decode_get_signed_bits
 1255              	.LVL138:
 1256 002a 0646     		mov	r6, r0
 1257              	.LVL139:
 500:Drivers/u8g2_csrc/u8g2_font.c ****   
 1258              		.loc 1 500 3 is_stmt 1 view .LVU376
 500:Drivers/u8g2_csrc/u8g2_font.c ****   
 1259              		.loc 1 500 7 is_stmt 0 view .LVU377
 1260 002c 94F87010 		ldrb	r1, [r4, #112]	@ zero_extendqisi2
 1261 0030 2846     		mov	r0, r5
 1262 0032 FFF7FEFF 		bl	u8g2_font_decode_get_signed_bits
 1263              	.LVL140:
 1264 0036 0290     		str	r0, [sp, #8]
 1265              	.LVL141:
 502:Drivers/u8g2_csrc/u8g2_font.c ****   {
 1266              		.loc 1 502 3 is_stmt 1 view .LVU378
 502:Drivers/u8g2_csrc/u8g2_font.c ****   {
 1267              		.loc 1 502 14 is_stmt 0 view .LVU379
 1268 0038 94F96080 		ldrsb	r8, [r4, #96]
 502:Drivers/u8g2_csrc/u8g2_font.c ****   {
 1269              		.loc 1 502 6 view .LVU380
 1270 003c B8F1000F 		cmp	r8, #0
 1271 0040 59DD     		ble	.L49
ARM GAS  C:\Users\25339\AppData\Local\Temp\ccNjsSLI.s 			page 46


 505:Drivers/u8g2_csrc/u8g2_font.c ****     decode->target_y = u8g2_add_vector_y(decode->target_y, x, -(h+y), decode->dir);
 1272              		.loc 1 505 5 is_stmt 1 view .LVU381
 505:Drivers/u8g2_csrc/u8g2_font.c ****     decode->target_y = u8g2_add_vector_y(decode->target_y, x, -(h+y), decode->dir);
 1273              		.loc 1 505 66 is_stmt 0 view .LVU382
 1274 0042 5FFA87FA 		uxtb	r10, r7
 1275 0046 5644     		add	r6, r6, r10
 1276              	.LVL142:
 505:Drivers/u8g2_csrc/u8g2_font.c ****     decode->target_y = u8g2_add_vector_y(decode->target_y, x, -(h+y), decode->dir);
 1277              		.loc 1 505 66 view .LVU383
 1278 0048 F6B2     		uxtb	r6, r6
 505:Drivers/u8g2_csrc/u8g2_font.c ****     decode->target_y = u8g2_add_vector_y(decode->target_y, x, -(h+y), decode->dir);
 1279              		.loc 1 505 24 view .LVU384
 1280 004a 7642     		rsbs	r6, r6, #0
 1281 004c 76B2     		sxtb	r6, r6
 1282 004e 94F866B0 		ldrb	fp, [r4, #102]	@ zero_extendqisi2
 1283 0052 5B46     		mov	r3, fp
 1284 0054 3246     		mov	r2, r6
 1285 0056 CDF80C90 		str	r9, [sp, #12]
 1286 005a 4946     		mov	r1, r9
 1287 005c 94F85C00 		ldrb	r0, [r4, #92]	@ zero_extendqisi2
 1288 0060 FFF7FEFF 		bl	u8g2_add_vector_x
 1289              	.LVL143:
 1290 0064 8146     		mov	r9, r0
 1291              	.LVL144:
 505:Drivers/u8g2_csrc/u8g2_font.c ****     decode->target_y = u8g2_add_vector_y(decode->target_y, x, -(h+y), decode->dir);
 1292              		.loc 1 505 22 view .LVU385
 1293 0066 84F85C00 		strb	r0, [r4, #92]
 506:Drivers/u8g2_csrc/u8g2_font.c **** #else
 1294              		.loc 1 506 5 is_stmt 1 view .LVU386
 506:Drivers/u8g2_csrc/u8g2_font.c **** #else
 1295              		.loc 1 506 24 is_stmt 0 view .LVU387
 1296 006a 5B46     		mov	r3, fp
 1297 006c 3246     		mov	r2, r6
 1298 006e 0399     		ldr	r1, [sp, #12]
 1299 0070 94F85D00 		ldrb	r0, [r4, #93]	@ zero_extendqisi2
 1300 0074 FFF7FEFF 		bl	u8g2_add_vector_y
 1301              	.LVL145:
 1302 0078 0246     		mov	r2, r0
 506:Drivers/u8g2_csrc/u8g2_font.c **** #else
 1303              		.loc 1 506 22 view .LVU388
 1304 007a 84F85D00 		strb	r0, [r4, #93]
 1305              	.LBB3:
 515:Drivers/u8g2_csrc/u8g2_font.c ****       x0 = decode->target_x;
 1306              		.loc 1 515 7 is_stmt 1 view .LVU389
 516:Drivers/u8g2_csrc/u8g2_font.c ****       y0 = decode->target_y;
 1307              		.loc 1 516 7 view .LVU390
 1308              	.LVL146:
 517:Drivers/u8g2_csrc/u8g2_font.c ****       x1 = x0;
 1309              		.loc 1 517 7 view .LVU391
 518:Drivers/u8g2_csrc/u8g2_font.c ****       y1 = y0;
 1310              		.loc 1 518 7 view .LVU392
 519:Drivers/u8g2_csrc/u8g2_font.c ****       
 1311              		.loc 1 519 7 view .LVU393
 522:Drivers/u8g2_csrc/u8g2_font.c ****       {
 1312              		.loc 1 522 7 view .LVU394
 1313 007e BBF1030F 		cmp	fp, #3
 1314 0082 69D8     		bhi	.L58
ARM GAS  C:\Users\25339\AppData\Local\Temp\ccNjsSLI.s 			page 47


 1315 0084 DFE80BF0 		tbb	[pc, fp]
 1316              	.L52:
 1317 0088 02       		.byte	(.L55-.L52)/2
 1318 0089 3B       		.byte	(.L54-.L52)/2
 1319 008a 49       		.byte	(.L53-.L52)/2
 1320 008b 5C       		.byte	(.L51-.L52)/2
 1321              		.p2align 1
 1322              	.L55:
 525:Drivers/u8g2_csrc/u8g2_font.c **** 	    y1 += h;
 1323              		.loc 1 525 6 view .LVU395
 525:Drivers/u8g2_csrc/u8g2_font.c **** 	    y1 += h;
 1324              		.loc 1 525 18 is_stmt 0 view .LVU396
 1325 008c 5FFA88F3 		uxtb	r3, r8
 525:Drivers/u8g2_csrc/u8g2_font.c **** 	    y1 += h;
 1326              		.loc 1 525 9 view .LVU397
 1327 0090 4B44     		add	r3, r3, r9
 1328 0092 DBB2     		uxtb	r3, r3
 1329              	.LVL147:
 526:Drivers/u8g2_csrc/u8g2_font.c **** 	    break;
 1330              		.loc 1 526 6 is_stmt 1 view .LVU398
 526:Drivers/u8g2_csrc/u8g2_font.c **** 	    break;
 1331              		.loc 1 526 9 is_stmt 0 view .LVU399
 1332 0094 5044     		add	r0, r10, r0
 1333              	.LVL148:
 526:Drivers/u8g2_csrc/u8g2_font.c **** 	    break;
 1334              		.loc 1 526 9 view .LVU400
 1335 0096 C0B2     		uxtb	r0, r0
 1336              	.LVL149:
 527:Drivers/u8g2_csrc/u8g2_font.c **** 	case 1:
 1337              		.loc 1 527 6 is_stmt 1 view .LVU401
 1338              	.L50:
 554:Drivers/u8g2_csrc/u8g2_font.c **** 	return d;
 1339              		.loc 1 554 7 view .LVU402
 554:Drivers/u8g2_csrc/u8g2_font.c **** 	return d;
 1340              		.loc 1 554 12 is_stmt 0 view .LVU403
 1341 0098 0090     		str	r0, [sp]
 1342 009a 4946     		mov	r1, r9
 1343 009c 2046     		mov	r0, r4
 1344              	.LVL150:
 554:Drivers/u8g2_csrc/u8g2_font.c **** 	return d;
 1345              		.loc 1 554 12 view .LVU404
 1346 009e FFF7FEFF 		bl	u8g2_IsIntersection
 1347              	.LVL151:
 554:Drivers/u8g2_csrc/u8g2_font.c **** 	return d;
 1348              		.loc 1 554 10 view .LVU405
 1349 00a2 40B3     		cbz	r0, .L49
 1350              	.LBE3:
 560:Drivers/u8g2_csrc/u8g2_font.c ****     decode->y = 0;
 1351              		.loc 1 560 5 is_stmt 1 view .LVU406
 560:Drivers/u8g2_csrc/u8g2_font.c ****     decode->y = 0;
 1352              		.loc 1 560 15 is_stmt 0 view .LVU407
 1353 00a4 0023     		movs	r3, #0
 1354 00a6 84F85E30 		strb	r3, [r4, #94]
 561:Drivers/u8g2_csrc/u8g2_font.c ****     
 1355              		.loc 1 561 5 is_stmt 1 view .LVU408
 561:Drivers/u8g2_csrc/u8g2_font.c ****     
 1356              		.loc 1 561 15 is_stmt 0 view .LVU409
ARM GAS  C:\Users\25339\AppData\Local\Temp\ccNjsSLI.s 			page 48


 1357 00aa 84F85F30 		strb	r3, [r4, #95]
 1358              	.L57:
 564:Drivers/u8g2_csrc/u8g2_font.c ****     {
 1359              		.loc 1 564 5 is_stmt 1 view .LVU410
 566:Drivers/u8g2_csrc/u8g2_font.c ****       b = u8g2_font_decode_get_unsigned_bits(decode, u8g2->font_info.bits_per_1);
 1360              		.loc 1 566 7 view .LVU411
 566:Drivers/u8g2_csrc/u8g2_font.c ****       b = u8g2_font_decode_get_unsigned_bits(decode, u8g2->font_info.bits_per_1);
 1361              		.loc 1 566 11 is_stmt 0 view .LVU412
 1362 00ae 94F86A10 		ldrb	r1, [r4, #106]	@ zero_extendqisi2
 1363 00b2 2846     		mov	r0, r5
 1364 00b4 FFF7FEFF 		bl	u8g2_font_decode_get_unsigned_bits
 1365              	.LVL152:
 1366 00b8 8046     		mov	r8, r0
 1367              	.LVL153:
 567:Drivers/u8g2_csrc/u8g2_font.c ****       do
 1368              		.loc 1 567 7 is_stmt 1 view .LVU413
 567:Drivers/u8g2_csrc/u8g2_font.c ****       do
 1369              		.loc 1 567 11 is_stmt 0 view .LVU414
 1370 00ba 94F86B10 		ldrb	r1, [r4, #107]	@ zero_extendqisi2
 1371 00be 2846     		mov	r0, r5
 1372 00c0 FFF7FEFF 		bl	u8g2_font_decode_get_unsigned_bits
 1373              	.LVL154:
 1374 00c4 0646     		mov	r6, r0
 1375              	.LVL155:
 1376              	.L56:
 568:Drivers/u8g2_csrc/u8g2_font.c ****       {
 1377              		.loc 1 568 7 is_stmt 1 discriminator 1 view .LVU415
 570:Drivers/u8g2_csrc/u8g2_font.c **** 	u8g2_font_decode_len(u8g2, b, 1);
 1378              		.loc 1 570 2 discriminator 1 view .LVU416
 1379 00c6 0022     		movs	r2, #0
 1380 00c8 4146     		mov	r1, r8
 1381 00ca 2046     		mov	r0, r4
 1382 00cc FFF7FEFF 		bl	u8g2_font_decode_len
 1383              	.LVL156:
 571:Drivers/u8g2_csrc/u8g2_font.c ****       } while( u8g2_font_decode_get_unsigned_bits(decode, 1) != 0 );
 1384              		.loc 1 571 2 discriminator 1 view .LVU417
 1385 00d0 0122     		movs	r2, #1
 1386 00d2 3146     		mov	r1, r6
 1387 00d4 2046     		mov	r0, r4
 1388 00d6 FFF7FEFF 		bl	u8g2_font_decode_len
 1389              	.LVL157:
 572:Drivers/u8g2_csrc/u8g2_font.c **** 
 1390              		.loc 1 572 14 discriminator 1 view .LVU418
 572:Drivers/u8g2_csrc/u8g2_font.c **** 
 1391              		.loc 1 572 16 is_stmt 0 discriminator 1 view .LVU419
 1392 00da 0121     		movs	r1, #1
 1393 00dc 2846     		mov	r0, r5
 1394 00de FFF7FEFF 		bl	u8g2_font_decode_get_unsigned_bits
 1395              	.LVL158:
 572:Drivers/u8g2_csrc/u8g2_font.c **** 
 1396              		.loc 1 572 7 discriminator 1 view .LVU420
 1397 00e2 0028     		cmp	r0, #0
 1398 00e4 EFD1     		bne	.L56
 574:Drivers/u8g2_csrc/u8g2_font.c **** 	break;
 1399              		.loc 1 574 7 is_stmt 1 view .LVU421
 574:Drivers/u8g2_csrc/u8g2_font.c **** 	break;
 1400              		.loc 1 574 18 is_stmt 0 view .LVU422
ARM GAS  C:\Users\25339\AppData\Local\Temp\ccNjsSLI.s 			page 49


 1401 00e6 94F95F30 		ldrsb	r3, [r4, #95]
 574:Drivers/u8g2_csrc/u8g2_font.c **** 	break;
 1402              		.loc 1 574 10 view .LVU423
 1403 00ea BB42     		cmp	r3, r7
 1404 00ec DFDB     		blt	.L57
 579:Drivers/u8g2_csrc/u8g2_font.c ****   }
 1405              		.loc 1 579 5 is_stmt 1 view .LVU424
 579:Drivers/u8g2_csrc/u8g2_font.c ****   }
 1406              		.loc 1 579 30 is_stmt 0 view .LVU425
 1407 00ee 94F86430 		ldrb	r3, [r4, #100]	@ zero_extendqisi2
 579:Drivers/u8g2_csrc/u8g2_font.c ****   }
 1408              		.loc 1 579 22 view .LVU426
 1409 00f2 84F88630 		strb	r3, [r4, #134]
 1410              	.LVL159:
 1411              	.L49:
 582:Drivers/u8g2_csrc/u8g2_font.c **** 
 1412              		.loc 1 582 1 view .LVU427
 1413 00f6 0298     		ldr	r0, [sp, #8]
 1414 00f8 05B0     		add	sp, sp, #20
 1415              	.LCFI11:
 1416              		.cfi_remember_state
 1417              		.cfi_def_cfa_offset 36
 1418              		@ sp needed
 1419 00fa BDE8F08F 		pop	{r4, r5, r6, r7, r8, r9, r10, fp, pc}
 1420              	.LVL160:
 1421              	.L54:
 1422              	.LCFI12:
 1423              		.cfi_restore_state
 1424              	.LBB4:
 529:Drivers/u8g2_csrc/u8g2_font.c **** 	    x0++;	/* shift down, because of assymetric boundaries for the interseciton test */
 1425              		.loc 1 529 6 is_stmt 1 view .LVU428
 529:Drivers/u8g2_csrc/u8g2_font.c **** 	    x0++;	/* shift down, because of assymetric boundaries for the interseciton test */
 1426              		.loc 1 529 9 is_stmt 0 view .LVU429
 1427 00fe A9EB0A01 		sub	r1, r9, r10
 1428 0102 C9B2     		uxtb	r1, r1
 1429              	.LVL161:
 530:Drivers/u8g2_csrc/u8g2_font.c **** 	    x1++;
 1430              		.loc 1 530 6 is_stmt 1 view .LVU430
 530:Drivers/u8g2_csrc/u8g2_font.c **** 	    x1++;
 1431              		.loc 1 530 8 is_stmt 0 view .LVU431
 1432 0104 0131     		adds	r1, r1, #1
 1433              	.LVL162:
 531:Drivers/u8g2_csrc/u8g2_font.c **** 	    y1 += decode->glyph_width;
 1434              		.loc 1 531 6 is_stmt 1 view .LVU432
 531:Drivers/u8g2_csrc/u8g2_font.c **** 	    y1 += decode->glyph_width;
 1435              		.loc 1 531 8 is_stmt 0 view .LVU433
 1436 0106 09F10103 		add	r3, r9, #1
 1437 010a DBB2     		uxtb	r3, r3
 1438              	.LVL163:
 532:Drivers/u8g2_csrc/u8g2_font.c **** 	    break;
 1439              		.loc 1 532 6 is_stmt 1 view .LVU434
 532:Drivers/u8g2_csrc/u8g2_font.c **** 	    break;
 1440              		.loc 1 532 18 is_stmt 0 view .LVU435
 1441 010c 5FFA88F0 		uxtb	r0, r8
 1442              	.LVL164:
 532:Drivers/u8g2_csrc/u8g2_font.c **** 	    break;
 1443              		.loc 1 532 9 view .LVU436
ARM GAS  C:\Users\25339\AppData\Local\Temp\ccNjsSLI.s 			page 50


 1444 0110 1044     		add	r0, r0, r2
 1445 0112 C0B2     		uxtb	r0, r0
 1446              	.LVL165:
 533:Drivers/u8g2_csrc/u8g2_font.c **** 	case 2:
 1447              		.loc 1 533 6 is_stmt 1 view .LVU437
 530:Drivers/u8g2_csrc/u8g2_font.c **** 	    x1++;
 1448              		.loc 1 530 8 is_stmt 0 view .LVU438
 1449 0114 5FFA81F9 		uxtb	r9, r1
 533:Drivers/u8g2_csrc/u8g2_font.c **** 	case 2:
 1450              		.loc 1 533 6 view .LVU439
 1451 0118 BEE7     		b	.L50
 1452              	.LVL166:
 1453              	.L53:
 535:Drivers/u8g2_csrc/u8g2_font.c **** 	    x0++;	/* shift down, because of assymetric boundaries for the interseciton test */
 1454              		.loc 1 535 6 is_stmt 1 view .LVU440
 535:Drivers/u8g2_csrc/u8g2_font.c **** 	    x0++;	/* shift down, because of assymetric boundaries for the interseciton test */
 1455              		.loc 1 535 18 is_stmt 0 view .LVU441
 1456 011a 5FFA88F1 		uxtb	r1, r8
 535:Drivers/u8g2_csrc/u8g2_font.c **** 	    x0++;	/* shift down, because of assymetric boundaries for the interseciton test */
 1457              		.loc 1 535 9 view .LVU442
 1458 011e A9EB0101 		sub	r1, r9, r1
 1459 0122 C9B2     		uxtb	r1, r1
 1460              	.LVL167:
 536:Drivers/u8g2_csrc/u8g2_font.c **** 	    x1++;
 1461              		.loc 1 536 6 is_stmt 1 view .LVU443
 536:Drivers/u8g2_csrc/u8g2_font.c **** 	    x1++;
 1462              		.loc 1 536 8 is_stmt 0 view .LVU444
 1463 0124 0131     		adds	r1, r1, #1
 1464              	.LVL168:
 537:Drivers/u8g2_csrc/u8g2_font.c **** 	    y0 -= h;
 1465              		.loc 1 537 6 is_stmt 1 view .LVU445
 537:Drivers/u8g2_csrc/u8g2_font.c **** 	    y0 -= h;
 1466              		.loc 1 537 8 is_stmt 0 view .LVU446
 1467 0126 09F10103 		add	r3, r9, #1
 1468 012a DBB2     		uxtb	r3, r3
 1469              	.LVL169:
 538:Drivers/u8g2_csrc/u8g2_font.c **** 	    y0++;	/* shift down, because of assymetric boundaries for the interseciton test */
 1470              		.loc 1 538 6 is_stmt 1 view .LVU447
 538:Drivers/u8g2_csrc/u8g2_font.c **** 	    y0++;	/* shift down, because of assymetric boundaries for the interseciton test */
 1471              		.loc 1 538 9 is_stmt 0 view .LVU448
 1472 012c A0EB0A06 		sub	r6, r0, r10
 1473 0130 F6B2     		uxtb	r6, r6
 1474              	.LVL170:
 539:Drivers/u8g2_csrc/u8g2_font.c **** 	    y1++;
 1475              		.loc 1 539 6 is_stmt 1 view .LVU449
 539:Drivers/u8g2_csrc/u8g2_font.c **** 	    y1++;
 1476              		.loc 1 539 8 is_stmt 0 view .LVU450
 1477 0132 0136     		adds	r6, r6, #1
 1478              	.LVL171:
 540:Drivers/u8g2_csrc/u8g2_font.c **** 	    break;	  
 1479              		.loc 1 540 6 is_stmt 1 view .LVU451
 540:Drivers/u8g2_csrc/u8g2_font.c **** 	    break;	  
 1480              		.loc 1 540 8 is_stmt 0 view .LVU452
 1481 0134 0132     		adds	r2, r2, #1
 1482 0136 D0B2     		uxtb	r0, r2
 1483              	.LVL172:
 541:Drivers/u8g2_csrc/u8g2_font.c **** 	case 3:
ARM GAS  C:\Users\25339\AppData\Local\Temp\ccNjsSLI.s 			page 51


 1484              		.loc 1 541 6 is_stmt 1 view .LVU453
 539:Drivers/u8g2_csrc/u8g2_font.c **** 	    y1++;
 1485              		.loc 1 539 8 is_stmt 0 view .LVU454
 1486 0138 F2B2     		uxtb	r2, r6
 536:Drivers/u8g2_csrc/u8g2_font.c **** 	    x1++;
 1487              		.loc 1 536 8 view .LVU455
 1488 013a 5FFA81F9 		uxtb	r9, r1
 541:Drivers/u8g2_csrc/u8g2_font.c **** 	case 3:
 1489              		.loc 1 541 6 view .LVU456
 1490 013e ABE7     		b	.L50
 1491              	.LVL173:
 1492              	.L51:
 543:Drivers/u8g2_csrc/u8g2_font.c **** 	    y0 -= decode->glyph_width;
 1493              		.loc 1 543 6 is_stmt 1 view .LVU457
 543:Drivers/u8g2_csrc/u8g2_font.c **** 	    y0 -= decode->glyph_width;
 1494              		.loc 1 543 9 is_stmt 0 view .LVU458
 1495 0140 0AEB0903 		add	r3, r10, r9
 1496 0144 DBB2     		uxtb	r3, r3
 1497              	.LVL174:
 544:Drivers/u8g2_csrc/u8g2_font.c **** 	    y0++;	/* shift down, because of assymetric boundaries for the interseciton test */
 1498              		.loc 1 544 6 is_stmt 1 view .LVU459
 544:Drivers/u8g2_csrc/u8g2_font.c **** 	    y0++;	/* shift down, because of assymetric boundaries for the interseciton test */
 1499              		.loc 1 544 18 is_stmt 0 view .LVU460
 1500 0146 5FFA88F1 		uxtb	r1, r8
 544:Drivers/u8g2_csrc/u8g2_font.c **** 	    y0++;	/* shift down, because of assymetric boundaries for the interseciton test */
 1501              		.loc 1 544 9 view .LVU461
 1502 014a 411A     		subs	r1, r0, r1
 1503 014c C9B2     		uxtb	r1, r1
 1504              	.LVL175:
 545:Drivers/u8g2_csrc/u8g2_font.c **** 	    y1++;
 1505              		.loc 1 545 6 is_stmt 1 view .LVU462
 545:Drivers/u8g2_csrc/u8g2_font.c **** 	    y1++;
 1506              		.loc 1 545 8 is_stmt 0 view .LVU463
 1507 014e 0131     		adds	r1, r1, #1
 1508              	.LVL176:
 546:Drivers/u8g2_csrc/u8g2_font.c **** 	    break;	  
 1509              		.loc 1 546 6 is_stmt 1 view .LVU464
 546:Drivers/u8g2_csrc/u8g2_font.c **** 	    break;	  
 1510              		.loc 1 546 8 is_stmt 0 view .LVU465
 1511 0150 0132     		adds	r2, r2, #1
 1512 0152 D0B2     		uxtb	r0, r2
 1513              	.LVL177:
 547:Drivers/u8g2_csrc/u8g2_font.c ****       }
 1514              		.loc 1 547 6 is_stmt 1 view .LVU466
 545:Drivers/u8g2_csrc/u8g2_font.c **** 	    y1++;
 1515              		.loc 1 545 8 is_stmt 0 view .LVU467
 1516 0154 CAB2     		uxtb	r2, r1
 547:Drivers/u8g2_csrc/u8g2_font.c ****       }
 1517              		.loc 1 547 6 view .LVU468
 1518 0156 9FE7     		b	.L50
 1519              	.LVL178:
 1520              	.L58:
 547:Drivers/u8g2_csrc/u8g2_font.c ****       }
 1521              		.loc 1 547 6 view .LVU469
 1522              	.LBE4:
 506:Drivers/u8g2_csrc/u8g2_font.c **** #else
 1523              		.loc 1 506 22 view .LVU470
ARM GAS  C:\Users\25339\AppData\Local\Temp\ccNjsSLI.s 			page 52


 1524 0158 4B46     		mov	r3, r9
 1525 015a 9DE7     		b	.L50
 1526              		.cfi_endproc
 1527              	.LFE15:
 1529              		.section	.text.u8g2_font_get_glyph_data,"ax",%progbits
 1530              		.align	1
 1531              		.global	u8g2_font_get_glyph_data
 1532              		.syntax unified
 1533              		.thumb
 1534              		.thumb_func
 1535              		.fpu softvfp
 1537              	u8g2_font_get_glyph_data:
 1538              	.LVL179:
 1539              	.LFB16:
 593:Drivers/u8g2_csrc/u8g2_font.c ****   const uint8_t *font = u8g2->font;
 1540              		.loc 1 593 1 is_stmt 1 view -0
 1541              		.cfi_startproc
 1542              		@ args = 0, pretend = 0, frame = 0
 1543              		@ frame_needed = 0, uses_anonymous_args = 0
 593:Drivers/u8g2_csrc/u8g2_font.c ****   const uint8_t *font = u8g2->font;
 1544              		.loc 1 593 1 is_stmt 0 view .LVU472
 1545 0000 70B5     		push	{r4, r5, r6, lr}
 1546              	.LCFI13:
 1547              		.cfi_def_cfa_offset 16
 1548              		.cfi_offset 4, -16
 1549              		.cfi_offset 5, -12
 1550              		.cfi_offset 6, -8
 1551              		.cfi_offset 14, -4
 1552 0002 0E46     		mov	r6, r1
 594:Drivers/u8g2_csrc/u8g2_font.c ****   font += U8G2_FONT_DATA_STRUCT_SIZE;
 1553              		.loc 1 594 3 is_stmt 1 view .LVU473
 594:Drivers/u8g2_csrc/u8g2_font.c ****   font += U8G2_FONT_DATA_STRUCT_SIZE;
 1554              		.loc 1 594 18 is_stmt 0 view .LVU474
 1555 0004 046D     		ldr	r4, [r0, #80]
 1556              	.LVL180:
 595:Drivers/u8g2_csrc/u8g2_font.c **** 
 1557              		.loc 1 595 3 is_stmt 1 view .LVU475
 595:Drivers/u8g2_csrc/u8g2_font.c **** 
 1558              		.loc 1 595 8 is_stmt 0 view .LVU476
 1559 0006 1734     		adds	r4, r4, #23
 1560              	.LVL181:
 598:Drivers/u8g2_csrc/u8g2_font.c ****   {
 1561              		.loc 1 598 3 is_stmt 1 view .LVU477
 598:Drivers/u8g2_csrc/u8g2_font.c ****   {
 1562              		.loc 1 598 6 is_stmt 0 view .LVU478
 1563 0008 FF29     		cmp	r1, #255
 1564 000a 13D8     		bhi	.L61
 600:Drivers/u8g2_csrc/u8g2_font.c ****     {
 1565              		.loc 1 600 5 is_stmt 1 view .LVU479
 600:Drivers/u8g2_csrc/u8g2_font.c ****     {
 1566              		.loc 1 600 8 is_stmt 0 view .LVU480
 1567 000c 6029     		cmp	r1, #96
 1568 000e 09D9     		bls	.L62
 602:Drivers/u8g2_csrc/u8g2_font.c ****     }
 1569              		.loc 1 602 7 is_stmt 1 view .LVU481
 602:Drivers/u8g2_csrc/u8g2_font.c ****     }
 1570              		.loc 1 602 30 is_stmt 0 view .LVU482
ARM GAS  C:\Users\25339\AppData\Local\Temp\ccNjsSLI.s 			page 53


 1571 0010 B0F87C30 		ldrh	r3, [r0, #124]
 602:Drivers/u8g2_csrc/u8g2_font.c ****     }
 1572              		.loc 1 602 12 view .LVU483
 1573 0014 1C44     		add	r4, r4, r3
 1574              	.LVL182:
 1575              	.L66:
 609:Drivers/u8g2_csrc/u8g2_font.c ****     {
 1576              		.loc 1 609 5 is_stmt 1 view .LVU484
 611:Drivers/u8g2_csrc/u8g2_font.c **** 	break;
 1577              		.loc 1 611 7 view .LVU485
 611:Drivers/u8g2_csrc/u8g2_font.c **** 	break;
 1578              		.loc 1 611 12 is_stmt 0 view .LVU486
 1579 0016 6378     		ldrb	r3, [r4, #1]	@ zero_extendqisi2
 611:Drivers/u8g2_csrc/u8g2_font.c **** 	break;
 1580              		.loc 1 611 10 view .LVU487
 1581 0018 43B3     		cbz	r3, .L70
 613:Drivers/u8g2_csrc/u8g2_font.c ****       {
 1582              		.loc 1 613 7 is_stmt 1 view .LVU488
 613:Drivers/u8g2_csrc/u8g2_font.c ****       {
 1583              		.loc 1 613 12 is_stmt 0 view .LVU489
 1584 001a 2278     		ldrb	r2, [r4]	@ zero_extendqisi2
 613:Drivers/u8g2_csrc/u8g2_font.c ****       {
 1585              		.loc 1 613 10 view .LVU490
 1586 001c B242     		cmp	r2, r6
 1587 001e 07D0     		beq	.L73
 617:Drivers/u8g2_csrc/u8g2_font.c ****     }
 1588              		.loc 1 617 7 is_stmt 1 view .LVU491
 617:Drivers/u8g2_csrc/u8g2_font.c ****     }
 1589              		.loc 1 617 12 is_stmt 0 view .LVU492
 1590 0020 1C44     		add	r4, r4, r3
 1591              	.LVL183:
 609:Drivers/u8g2_csrc/u8g2_font.c ****     {
 1592              		.loc 1 609 10 is_stmt 1 view .LVU493
 611:Drivers/u8g2_csrc/u8g2_font.c **** 	break;
 1593              		.loc 1 611 10 is_stmt 0 view .LVU494
 1594 0022 F8E7     		b	.L66
 1595              	.L62:
 604:Drivers/u8g2_csrc/u8g2_font.c ****     {
 1596              		.loc 1 604 10 is_stmt 1 view .LVU495
 604:Drivers/u8g2_csrc/u8g2_font.c ****     {
 1597              		.loc 1 604 13 is_stmt 0 view .LVU496
 1598 0024 4029     		cmp	r1, #64
 1599 0026 F6D9     		bls	.L66
 606:Drivers/u8g2_csrc/u8g2_font.c ****     }
 1600              		.loc 1 606 7 is_stmt 1 view .LVU497
 606:Drivers/u8g2_csrc/u8g2_font.c ****     }
 1601              		.loc 1 606 30 is_stmt 0 view .LVU498
 1602 0028 B0F87A30 		ldrh	r3, [r0, #122]
 606:Drivers/u8g2_csrc/u8g2_font.c ****     }
 1603              		.loc 1 606 12 view .LVU499
 1604 002c 1C44     		add	r4, r4, r3
 1605              	.LVL184:
 606:Drivers/u8g2_csrc/u8g2_font.c ****     }
 1606              		.loc 1 606 12 view .LVU500
 1607 002e F2E7     		b	.L66
 1608              	.L73:
 615:Drivers/u8g2_csrc/u8g2_font.c ****       }
ARM GAS  C:\Users\25339\AppData\Local\Temp\ccNjsSLI.s 			page 54


 1609              		.loc 1 615 2 is_stmt 1 view .LVU501
 615:Drivers/u8g2_csrc/u8g2_font.c ****       }
 1610              		.loc 1 615 13 is_stmt 0 view .LVU502
 1611 0030 A01C     		adds	r0, r4, #2
 1612              	.LVL185:
 615:Drivers/u8g2_csrc/u8g2_font.c ****       }
 1613              		.loc 1 615 13 view .LVU503
 1614 0032 1CE0     		b	.L60
 1615              	.LVL186:
 1616              	.L61:
 1617              	.LBB5:
 623:Drivers/u8g2_csrc/u8g2_font.c ****     const uint8_t *unicode_lookup_table;
 1618              		.loc 1 623 5 is_stmt 1 view .LVU504
 624:Drivers/u8g2_csrc/u8g2_font.c ****     
 1619              		.loc 1 624 5 view .LVU505
 635:Drivers/u8g2_csrc/u8g2_font.c ****     unicode_lookup_table = font; 
 1620              		.loc 1 635 5 view .LVU506
 635:Drivers/u8g2_csrc/u8g2_font.c ****     unicode_lookup_table = font; 
 1621              		.loc 1 635 28 is_stmt 0 view .LVU507
 1622 0034 B0F87E00 		ldrh	r0, [r0, #126]
 1623              	.LVL187:
 635:Drivers/u8g2_csrc/u8g2_font.c ****     unicode_lookup_table = font; 
 1624              		.loc 1 635 10 view .LVU508
 1625 0038 0444     		add	r4, r4, r0
 1626              	.LVL188:
 636:Drivers/u8g2_csrc/u8g2_font.c ****   
 1627              		.loc 1 636 5 is_stmt 1 view .LVU509
 636:Drivers/u8g2_csrc/u8g2_font.c ****   
 1628              		.loc 1 636 26 is_stmt 0 view .LVU510
 1629 003a 2546     		mov	r5, r4
 1630              	.LVL189:
 1631              	.L67:
 639:Drivers/u8g2_csrc/u8g2_font.c ****     {
 1632              		.loc 1 639 5 is_stmt 1 discriminator 1 view .LVU511
 641:Drivers/u8g2_csrc/u8g2_font.c ****       e = u8g2_font_get_word(unicode_lookup_table, 2);
 1633              		.loc 1 641 7 discriminator 1 view .LVU512
 641:Drivers/u8g2_csrc/u8g2_font.c ****       e = u8g2_font_get_word(unicode_lookup_table, 2);
 1634              		.loc 1 641 15 is_stmt 0 discriminator 1 view .LVU513
 1635 003c 0021     		movs	r1, #0
 1636 003e 2846     		mov	r0, r5
 1637 0040 FFF7FEFF 		bl	u8g2_font_get_word
 1638              	.LVL190:
 641:Drivers/u8g2_csrc/u8g2_font.c ****       e = u8g2_font_get_word(unicode_lookup_table, 2);
 1639              		.loc 1 641 12 discriminator 1 view .LVU514
 1640 0044 0444     		add	r4, r4, r0
 1641              	.LVL191:
 642:Drivers/u8g2_csrc/u8g2_font.c ****       unicode_lookup_table+=4;
 1642              		.loc 1 642 7 is_stmt 1 discriminator 1 view .LVU515
 642:Drivers/u8g2_csrc/u8g2_font.c ****       unicode_lookup_table+=4;
 1643              		.loc 1 642 11 is_stmt 0 discriminator 1 view .LVU516
 1644 0046 0221     		movs	r1, #2
 1645 0048 2846     		mov	r0, r5
 1646 004a FFF7FEFF 		bl	u8g2_font_get_word
 1647              	.LVL192:
 643:Drivers/u8g2_csrc/u8g2_font.c ****     } while( e < encoding );
 1648              		.loc 1 643 7 is_stmt 1 discriminator 1 view .LVU517
 643:Drivers/u8g2_csrc/u8g2_font.c ****     } while( e < encoding );
ARM GAS  C:\Users\25339\AppData\Local\Temp\ccNjsSLI.s 			page 55


 1649              		.loc 1 643 27 is_stmt 0 discriminator 1 view .LVU518
 1650 004e 0435     		adds	r5, r5, #4
 1651              	.LVL193:
 644:Drivers/u8g2_csrc/u8g2_font.c ****     
 1652              		.loc 1 644 12 is_stmt 1 discriminator 1 view .LVU519
 644:Drivers/u8g2_csrc/u8g2_font.c ****     
 1653              		.loc 1 644 5 is_stmt 0 discriminator 1 view .LVU520
 1654 0050 8642     		cmp	r6, r0
 1655 0052 F3D8     		bhi	.L67
 1656              	.LVL194:
 1657              	.L69:
 647:Drivers/u8g2_csrc/u8g2_font.c ****     {
 1658              		.loc 1 647 5 is_stmt 1 view .LVU521
 649:Drivers/u8g2_csrc/u8g2_font.c ****       e <<= 8;
 1659              		.loc 1 649 7 view .LVU522
 649:Drivers/u8g2_csrc/u8g2_font.c ****       e <<= 8;
 1660              		.loc 1 649 9 is_stmt 0 view .LVU523
 1661 0054 2278     		ldrb	r2, [r4]	@ zero_extendqisi2
 1662              	.LVL195:
 650:Drivers/u8g2_csrc/u8g2_font.c ****       e |= u8x8_pgm_read( font + 1 );
 1663              		.loc 1 650 7 is_stmt 1 view .LVU524
 651:Drivers/u8g2_csrc/u8g2_font.c ****   
 1664              		.loc 1 651 7 view .LVU525
 651:Drivers/u8g2_csrc/u8g2_font.c ****   
 1665              		.loc 1 651 12 is_stmt 0 view .LVU526
 1666 0056 6378     		ldrb	r3, [r4, #1]	@ zero_extendqisi2
 1667              	.LVL196:
 659:Drivers/u8g2_csrc/u8g2_font.c **** 	break;
 1668              		.loc 1 659 7 is_stmt 1 view .LVU527
 659:Drivers/u8g2_csrc/u8g2_font.c **** 	break;
 1669              		.loc 1 659 10 is_stmt 0 view .LVU528
 1670 0058 53EA0223 		orrs	r3, r3, r2, lsl #8
 1671              	.LVL197:
 659:Drivers/u8g2_csrc/u8g2_font.c **** 	break;
 1672              		.loc 1 659 10 view .LVU529
 1673 005c 08D0     		beq	.L71
 662:Drivers/u8g2_csrc/u8g2_font.c ****       {
 1674              		.loc 1 662 7 is_stmt 1 view .LVU530
 662:Drivers/u8g2_csrc/u8g2_font.c ****       {
 1675              		.loc 1 662 10 is_stmt 0 view .LVU531
 1676 005e 9E42     		cmp	r6, r3
 1677 0060 02D0     		beq	.L74
 671:Drivers/u8g2_csrc/u8g2_font.c ****     }  
 1678              		.loc 1 671 7 is_stmt 1 view .LVU532
 671:Drivers/u8g2_csrc/u8g2_font.c ****     }  
 1679              		.loc 1 671 15 is_stmt 0 view .LVU533
 1680 0062 A378     		ldrb	r3, [r4, #2]	@ zero_extendqisi2
 1681              	.LVL198:
 671:Drivers/u8g2_csrc/u8g2_font.c ****     }  
 1682              		.loc 1 671 12 view .LVU534
 1683 0064 1C44     		add	r4, r4, r3
 1684              	.LVL199:
 647:Drivers/u8g2_csrc/u8g2_font.c ****     {
 1685              		.loc 1 647 10 is_stmt 1 view .LVU535
 649:Drivers/u8g2_csrc/u8g2_font.c ****       e <<= 8;
 1686              		.loc 1 649 9 is_stmt 0 view .LVU536
 1687 0066 F5E7     		b	.L69
ARM GAS  C:\Users\25339\AppData\Local\Temp\ccNjsSLI.s 			page 56


 1688              	.LVL200:
 1689              	.L74:
 669:Drivers/u8g2_csrc/u8g2_font.c ****       }
 1690              		.loc 1 669 2 is_stmt 1 view .LVU537
 669:Drivers/u8g2_csrc/u8g2_font.c ****       }
 1691              		.loc 1 669 13 is_stmt 0 view .LVU538
 1692 0068 E01C     		adds	r0, r4, #3
 1693 006a 00E0     		b	.L60
 1694              	.LVL201:
 1695              	.L70:
 669:Drivers/u8g2_csrc/u8g2_font.c ****       }
 1696              		.loc 1 669 13 view .LVU539
 1697              	.LBE5:
 676:Drivers/u8g2_csrc/u8g2_font.c **** }
 1698              		.loc 1 676 10 view .LVU540
 1699 006c 0020     		movs	r0, #0
 1700              	.LVL202:
 1701              	.L60:
 677:Drivers/u8g2_csrc/u8g2_font.c **** 
 1702              		.loc 1 677 1 view .LVU541
 1703 006e 70BD     		pop	{r4, r5, r6, pc}
 1704              	.LVL203:
 1705              	.L71:
 676:Drivers/u8g2_csrc/u8g2_font.c **** }
 1706              		.loc 1 676 10 view .LVU542
 1707 0070 0020     		movs	r0, #0
 1708 0072 FCE7     		b	.L60
 1709              		.cfi_endproc
 1710              	.LFE16:
 1712              		.section	.text.u8g2_font_draw_glyph,"ax",%progbits
 1713              		.align	1
 1714              		.syntax unified
 1715              		.thumb
 1716              		.thumb_func
 1717              		.fpu softvfp
 1719              	u8g2_font_draw_glyph:
 1720              	.LVL204:
 1721              	.LFB17:
 680:Drivers/u8g2_csrc/u8g2_font.c ****   u8g2_uint_t dx = 0;
 1722              		.loc 1 680 1 is_stmt 1 view -0
 1723              		.cfi_startproc
 1724              		@ args = 0, pretend = 0, frame = 0
 1725              		@ frame_needed = 0, uses_anonymous_args = 0
 680:Drivers/u8g2_csrc/u8g2_font.c ****   u8g2_uint_t dx = 0;
 1726              		.loc 1 680 1 is_stmt 0 view .LVU544
 1727 0000 10B5     		push	{r4, lr}
 1728              	.LCFI14:
 1729              		.cfi_def_cfa_offset 8
 1730              		.cfi_offset 4, -8
 1731              		.cfi_offset 14, -4
 1732 0002 0446     		mov	r4, r0
 681:Drivers/u8g2_csrc/u8g2_font.c ****   u8g2->font_decode.target_x = x;
 1733              		.loc 1 681 3 is_stmt 1 view .LVU545
 1734              	.LVL205:
 682:Drivers/u8g2_csrc/u8g2_font.c ****   u8g2->font_decode.target_y = y;
 1735              		.loc 1 682 3 view .LVU546
 682:Drivers/u8g2_csrc/u8g2_font.c ****   u8g2->font_decode.target_y = y;
ARM GAS  C:\Users\25339\AppData\Local\Temp\ccNjsSLI.s 			page 57


 1736              		.loc 1 682 30 is_stmt 0 view .LVU547
 1737 0004 80F85C10 		strb	r1, [r0, #92]
 683:Drivers/u8g2_csrc/u8g2_font.c ****   //u8g2->font_decode.is_transparent = is_transparent; this is already set
 1738              		.loc 1 683 3 is_stmt 1 view .LVU548
 683:Drivers/u8g2_csrc/u8g2_font.c ****   //u8g2->font_decode.is_transparent = is_transparent; this is already set
 1739              		.loc 1 683 30 is_stmt 0 view .LVU549
 1740 0008 80F85D20 		strb	r2, [r0, #93]
 686:Drivers/u8g2_csrc/u8g2_font.c ****   if ( glyph_data != NULL )
 1741              		.loc 1 686 3 is_stmt 1 view .LVU550
 686:Drivers/u8g2_csrc/u8g2_font.c ****   if ( glyph_data != NULL )
 1742              		.loc 1 686 31 is_stmt 0 view .LVU551
 1743 000c 1946     		mov	r1, r3
 1744              	.LVL206:
 686:Drivers/u8g2_csrc/u8g2_font.c ****   if ( glyph_data != NULL )
 1745              		.loc 1 686 31 view .LVU552
 1746 000e FFF7FEFF 		bl	u8g2_font_get_glyph_data
 1747              	.LVL207:
 687:Drivers/u8g2_csrc/u8g2_font.c ****   {
 1748              		.loc 1 687 3 is_stmt 1 view .LVU553
 687:Drivers/u8g2_csrc/u8g2_font.c ****   {
 1749              		.loc 1 687 6 is_stmt 0 view .LVU554
 1750 0012 28B1     		cbz	r0, .L77
 1751 0014 0146     		mov	r1, r0
 689:Drivers/u8g2_csrc/u8g2_font.c ****   }
 1752              		.loc 1 689 5 is_stmt 1 view .LVU555
 689:Drivers/u8g2_csrc/u8g2_font.c ****   }
 1753              		.loc 1 689 10 is_stmt 0 view .LVU556
 1754 0016 2046     		mov	r0, r4
 1755              	.LVL208:
 689:Drivers/u8g2_csrc/u8g2_font.c ****   }
 1756              		.loc 1 689 10 view .LVU557
 1757 0018 FFF7FEFF 		bl	u8g2_font_decode_glyph
 1758              	.LVL209:
 689:Drivers/u8g2_csrc/u8g2_font.c ****   }
 1759              		.loc 1 689 8 view .LVU558
 1760 001c C0B2     		uxtb	r0, r0
 1761              	.LVL210:
 1762              	.L76:
 691:Drivers/u8g2_csrc/u8g2_font.c **** }
 1763              		.loc 1 691 3 is_stmt 1 view .LVU559
 692:Drivers/u8g2_csrc/u8g2_font.c **** 
 1764              		.loc 1 692 1 is_stmt 0 view .LVU560
 1765 001e 10BD     		pop	{r4, pc}
 1766              	.LVL211:
 1767              	.L77:
 681:Drivers/u8g2_csrc/u8g2_font.c ****   u8g2->font_decode.target_x = x;
 1768              		.loc 1 681 15 view .LVU561
 1769 0020 0020     		movs	r0, #0
 1770              	.LVL212:
 681:Drivers/u8g2_csrc/u8g2_font.c ****   u8g2->font_decode.target_x = x;
 1771              		.loc 1 681 15 view .LVU562
 1772 0022 FCE7     		b	.L76
 1773              		.cfi_endproc
 1774              	.LFE17:
 1776              		.section	.text.u8g2_is_all_valid,"ax",%progbits
 1777              		.align	1
 1778              		.syntax unified
ARM GAS  C:\Users\25339\AppData\Local\Temp\ccNjsSLI.s 			page 58


 1779              		.thumb
 1780              		.thumb_func
 1781              		.fpu softvfp
 1783              	u8g2_is_all_valid:
 1784              	.LVL213:
 1785              	.LFB40:
1021:Drivers/u8g2_csrc/u8g2_font.c **** 
1022:Drivers/u8g2_csrc/u8g2_font.c **** void u8g2_SetFontPosCenter(u8g2_t *u8g2)
1023:Drivers/u8g2_csrc/u8g2_font.c **** {
1024:Drivers/u8g2_csrc/u8g2_font.c ****   u8g2->font_calc_vref = u8g2_font_calc_vref_center;
1025:Drivers/u8g2_csrc/u8g2_font.c **** }
1026:Drivers/u8g2_csrc/u8g2_font.c **** 
1027:Drivers/u8g2_csrc/u8g2_font.c **** /*===============================================*/
1028:Drivers/u8g2_csrc/u8g2_font.c **** 
1029:Drivers/u8g2_csrc/u8g2_font.c **** void u8g2_SetFont(u8g2_t *u8g2, const uint8_t  *font)
1030:Drivers/u8g2_csrc/u8g2_font.c **** {
1031:Drivers/u8g2_csrc/u8g2_font.c ****   if ( u8g2->font != font )
1032:Drivers/u8g2_csrc/u8g2_font.c ****   {
1033:Drivers/u8g2_csrc/u8g2_font.c **** //#ifdef  __unix__
1034:Drivers/u8g2_csrc/u8g2_font.c **** //	u8g2->last_font_data = NULL;
1035:Drivers/u8g2_csrc/u8g2_font.c **** //	u8g2->last_unicode = 0x0ffff;
1036:Drivers/u8g2_csrc/u8g2_font.c **** //#endif 
1037:Drivers/u8g2_csrc/u8g2_font.c ****     u8g2->font = font;
1038:Drivers/u8g2_csrc/u8g2_font.c ****     u8g2_read_font_info(&(u8g2->font_info), font);
1039:Drivers/u8g2_csrc/u8g2_font.c ****     u8g2_UpdateRefHeight(u8g2);
1040:Drivers/u8g2_csrc/u8g2_font.c ****     /* u8g2_SetFontPosBaseline(u8g2); */ /* removed with issue 195 */
1041:Drivers/u8g2_csrc/u8g2_font.c ****   }
1042:Drivers/u8g2_csrc/u8g2_font.c **** }
1043:Drivers/u8g2_csrc/u8g2_font.c **** 
1044:Drivers/u8g2_csrc/u8g2_font.c **** /*===============================================*/
1045:Drivers/u8g2_csrc/u8g2_font.c **** 
1046:Drivers/u8g2_csrc/u8g2_font.c **** static uint8_t u8g2_is_all_valid(u8g2_t *u8g2, const char *str) U8G2_NOINLINE;
1047:Drivers/u8g2_csrc/u8g2_font.c **** static uint8_t u8g2_is_all_valid(u8g2_t *u8g2, const char *str)
1048:Drivers/u8g2_csrc/u8g2_font.c **** {
 1786              		.loc 1 1048 1 is_stmt 1 view -0
 1787              		.cfi_startproc
 1788              		@ args = 0, pretend = 0, frame = 0
 1789              		@ frame_needed = 0, uses_anonymous_args = 0
 1790              		.loc 1 1048 1 is_stmt 0 view .LVU564
 1791 0000 38B5     		push	{r3, r4, r5, lr}
 1792              	.LCFI15:
 1793              		.cfi_def_cfa_offset 16
 1794              		.cfi_offset 3, -16
 1795              		.cfi_offset 4, -12
 1796              		.cfi_offset 5, -8
 1797              		.cfi_offset 14, -4
 1798 0002 0546     		mov	r5, r0
 1799 0004 0C46     		mov	r4, r1
1049:Drivers/u8g2_csrc/u8g2_font.c ****   uint16_t e;
 1800              		.loc 1 1049 3 is_stmt 1 view .LVU565
1050:Drivers/u8g2_csrc/u8g2_font.c ****   u8x8_utf8_init(u8g2_GetU8x8(u8g2));
 1801              		.loc 1 1050 3 view .LVU566
 1802 0006 FFF7FEFF 		bl	u8x8_utf8_init
 1803              	.LVL214:
 1804              	.L81:
1051:Drivers/u8g2_csrc/u8g2_font.c ****   for(;;)
 1805              		.loc 1 1051 3 view .LVU567
ARM GAS  C:\Users\25339\AppData\Local\Temp\ccNjsSLI.s 			page 59


1052:Drivers/u8g2_csrc/u8g2_font.c ****   {
1053:Drivers/u8g2_csrc/u8g2_font.c ****     e = u8g2->u8x8.next_cb(u8g2_GetU8x8(u8g2), (uint8_t)*str);
 1806              		.loc 1 1053 5 view .LVU568
 1807              		.loc 1 1053 19 is_stmt 0 view .LVU569
 1808 000a 6B68     		ldr	r3, [r5, #4]
 1809              		.loc 1 1053 9 view .LVU570
 1810 000c 2178     		ldrb	r1, [r4]	@ zero_extendqisi2
 1811 000e 2846     		mov	r0, r5
 1812 0010 9847     		blx	r3
 1813              	.LVL215:
1054:Drivers/u8g2_csrc/u8g2_font.c ****     if ( e == 0x0ffff )
 1814              		.loc 1 1054 5 is_stmt 1 view .LVU571
 1815              		.loc 1 1054 8 is_stmt 0 view .LVU572
 1816 0012 4FF6FF73 		movw	r3, #65535
 1817 0016 9842     		cmp	r0, r3
 1818 0018 0BD0     		beq	.L82
1055:Drivers/u8g2_csrc/u8g2_font.c ****       break;
1056:Drivers/u8g2_csrc/u8g2_font.c ****     str++;
 1819              		.loc 1 1056 5 is_stmt 1 view .LVU573
 1820              		.loc 1 1056 8 is_stmt 0 view .LVU574
 1821 001a 0134     		adds	r4, r4, #1
 1822              	.LVL216:
1057:Drivers/u8g2_csrc/u8g2_font.c ****     if ( e != 0x0fffe )
 1823              		.loc 1 1057 5 is_stmt 1 view .LVU575
 1824              		.loc 1 1057 8 is_stmt 0 view .LVU576
 1825 001c 4FF6FE73 		movw	r3, #65534
 1826 0020 9842     		cmp	r0, r3
 1827 0022 F2D0     		beq	.L81
1058:Drivers/u8g2_csrc/u8g2_font.c ****     {
1059:Drivers/u8g2_csrc/u8g2_font.c ****       if ( u8g2_font_get_glyph_data(u8g2, e) == NULL )
 1828              		.loc 1 1059 7 is_stmt 1 view .LVU577
 1829              		.loc 1 1059 12 is_stmt 0 view .LVU578
 1830 0024 0146     		mov	r1, r0
 1831 0026 2846     		mov	r0, r5
 1832              	.LVL217:
 1833              		.loc 1 1059 12 view .LVU579
 1834 0028 FFF7FEFF 		bl	u8g2_font_get_glyph_data
 1835              	.LVL218:
 1836              		.loc 1 1059 10 view .LVU580
 1837 002c 0028     		cmp	r0, #0
 1838 002e ECD1     		bne	.L81
 1839 0030 00E0     		b	.L80
 1840              	.LVL219:
 1841              	.L82:
1060:Drivers/u8g2_csrc/u8g2_font.c **** 	return 0;
1061:Drivers/u8g2_csrc/u8g2_font.c ****     }
1062:Drivers/u8g2_csrc/u8g2_font.c ****   }
1063:Drivers/u8g2_csrc/u8g2_font.c ****   return 1;
 1842              		.loc 1 1063 10 view .LVU581
 1843 0032 0120     		movs	r0, #1
 1844              	.LVL220:
 1845              	.L80:
1064:Drivers/u8g2_csrc/u8g2_font.c **** }
 1846              		.loc 1 1064 1 view .LVU582
 1847 0034 38BD     		pop	{r3, r4, r5, pc}
 1848              		.loc 1 1064 1 view .LVU583
 1849              		.cfi_endproc
ARM GAS  C:\Users\25339\AppData\Local\Temp\ccNjsSLI.s 			page 60


 1850              	.LFE40:
 1852              		.section	.text.u8g2_GetGlyphHorizontalProperties,"ax",%progbits
 1853              		.align	1
 1854              		.syntax unified
 1855              		.thumb
 1856              		.thumb_func
 1857              		.fpu softvfp
 1859              	u8g2_GetGlyphHorizontalProperties:
 1860              	.LVL221:
 1861              	.LFB43:
1065:Drivers/u8g2_csrc/u8g2_font.c **** 
1066:Drivers/u8g2_csrc/u8g2_font.c **** uint8_t u8g2_IsAllValidUTF8(u8g2_t *u8g2, const char *str)
1067:Drivers/u8g2_csrc/u8g2_font.c **** {
1068:Drivers/u8g2_csrc/u8g2_font.c ****   u8g2->u8x8.next_cb = u8x8_utf8_next;
1069:Drivers/u8g2_csrc/u8g2_font.c ****   return u8g2_is_all_valid(u8g2, str);
1070:Drivers/u8g2_csrc/u8g2_font.c **** }
1071:Drivers/u8g2_csrc/u8g2_font.c **** 
1072:Drivers/u8g2_csrc/u8g2_font.c **** 
1073:Drivers/u8g2_csrc/u8g2_font.c **** /* string calculation is stilll not 100% perfect as it addes the initial string offset to the overa
1074:Drivers/u8g2_csrc/u8g2_font.c **** static u8g2_uint_t u8g2_string_width(u8g2_t *u8g2, const char *str) U8G2_NOINLINE;
1075:Drivers/u8g2_csrc/u8g2_font.c **** static u8g2_uint_t u8g2_string_width(u8g2_t *u8g2, const char *str)
1076:Drivers/u8g2_csrc/u8g2_font.c **** {
1077:Drivers/u8g2_csrc/u8g2_font.c ****   uint16_t e;
1078:Drivers/u8g2_csrc/u8g2_font.c ****   u8g2_uint_t  w, dx;
1079:Drivers/u8g2_csrc/u8g2_font.c ****   
1080:Drivers/u8g2_csrc/u8g2_font.c ****   u8g2->font_decode.glyph_width = 0;
1081:Drivers/u8g2_csrc/u8g2_font.c ****   u8x8_utf8_init(u8g2_GetU8x8(u8g2));
1082:Drivers/u8g2_csrc/u8g2_font.c ****   
1083:Drivers/u8g2_csrc/u8g2_font.c ****   /* reset the total width to zero, this will be expanded during calculation */
1084:Drivers/u8g2_csrc/u8g2_font.c ****   w = 0;
1085:Drivers/u8g2_csrc/u8g2_font.c ****   dx = 0;
1086:Drivers/u8g2_csrc/u8g2_font.c **** 
1087:Drivers/u8g2_csrc/u8g2_font.c ****   // printf("str=<%s>\n", str);
1088:Drivers/u8g2_csrc/u8g2_font.c **** 	
1089:Drivers/u8g2_csrc/u8g2_font.c ****   for(;;)
1090:Drivers/u8g2_csrc/u8g2_font.c ****   {
1091:Drivers/u8g2_csrc/u8g2_font.c ****     e = u8g2->u8x8.next_cb(u8g2_GetU8x8(u8g2), (uint8_t)*str);
1092:Drivers/u8g2_csrc/u8g2_font.c ****     if ( e == 0x0ffff )
1093:Drivers/u8g2_csrc/u8g2_font.c ****       break;
1094:Drivers/u8g2_csrc/u8g2_font.c ****     str++;
1095:Drivers/u8g2_csrc/u8g2_font.c ****     if ( e != 0x0fffe )
1096:Drivers/u8g2_csrc/u8g2_font.c ****     {
1097:Drivers/u8g2_csrc/u8g2_font.c ****       dx = u8g2_GetGlyphWidth(u8g2, e);		/* delta x value of the glyph */
1098:Drivers/u8g2_csrc/u8g2_font.c ****       w += dx;
1099:Drivers/u8g2_csrc/u8g2_font.c ****     }
1100:Drivers/u8g2_csrc/u8g2_font.c ****   }
1101:Drivers/u8g2_csrc/u8g2_font.c ****   
1102:Drivers/u8g2_csrc/u8g2_font.c ****   /* adjust the last glyph, check for issue #16: do not adjust if width is 0 */
1103:Drivers/u8g2_csrc/u8g2_font.c ****   if ( u8g2->font_decode.glyph_width != 0 )
1104:Drivers/u8g2_csrc/u8g2_font.c ****   {
1105:Drivers/u8g2_csrc/u8g2_font.c ****     w -= dx;
1106:Drivers/u8g2_csrc/u8g2_font.c ****     w += u8g2->font_decode.glyph_width;  /* the real pixel width of the glyph, sideeffect of GetGly
1107:Drivers/u8g2_csrc/u8g2_font.c ****     /* issue #46: we have to add the x offset also */
1108:Drivers/u8g2_csrc/u8g2_font.c ****     w += u8g2->glyph_x_offset;	/* this value is set as a side effect of u8g2_GetGlyphWidth() */
1109:Drivers/u8g2_csrc/u8g2_font.c ****   }
1110:Drivers/u8g2_csrc/u8g2_font.c ****   // printf("w=%d \n", w);
1111:Drivers/u8g2_csrc/u8g2_font.c ****   
ARM GAS  C:\Users\25339\AppData\Local\Temp\ccNjsSLI.s 			page 61


1112:Drivers/u8g2_csrc/u8g2_font.c ****   return w;  
1113:Drivers/u8g2_csrc/u8g2_font.c **** }
1114:Drivers/u8g2_csrc/u8g2_font.c **** 
1115:Drivers/u8g2_csrc/u8g2_font.c **** static void u8g2_GetGlyphHorizontalProperties(u8g2_t *u8g2, uint16_t requested_encoding, uint8_t *w
1116:Drivers/u8g2_csrc/u8g2_font.c **** {
 1862              		.loc 1 1116 1 is_stmt 1 view -0
 1863              		.cfi_startproc
 1864              		@ args = 4, pretend = 0, frame = 0
 1865              		@ frame_needed = 0, uses_anonymous_args = 0
 1866              		.loc 1 1116 1 is_stmt 0 view .LVU585
 1867 0000 70B5     		push	{r4, r5, r6, lr}
 1868              	.LCFI16:
 1869              		.cfi_def_cfa_offset 16
 1870              		.cfi_offset 4, -16
 1871              		.cfi_offset 5, -12
 1872              		.cfi_offset 6, -8
 1873              		.cfi_offset 14, -4
 1874 0002 0446     		mov	r4, r0
 1875 0004 1646     		mov	r6, r2
 1876 0006 1D46     		mov	r5, r3
1117:Drivers/u8g2_csrc/u8g2_font.c ****   const uint8_t *glyph_data = u8g2_font_get_glyph_data(u8g2, requested_encoding);
 1877              		.loc 1 1117 3 is_stmt 1 view .LVU586
 1878              		.loc 1 1117 31 is_stmt 0 view .LVU587
 1879 0008 FFF7FEFF 		bl	u8g2_font_get_glyph_data
 1880              	.LVL222:
1118:Drivers/u8g2_csrc/u8g2_font.c ****   if ( glyph_data == NULL )
 1881              		.loc 1 1118 3 is_stmt 1 view .LVU588
 1882              		.loc 1 1118 6 is_stmt 0 view .LVU589
 1883 000c D0B1     		cbz	r0, .L84
 1884 000e 0146     		mov	r1, r0
1119:Drivers/u8g2_csrc/u8g2_font.c ****     return; 
1120:Drivers/u8g2_csrc/u8g2_font.c ****   
1121:Drivers/u8g2_csrc/u8g2_font.c ****   u8g2_font_setup_decode(u8g2, glyph_data);
 1885              		.loc 1 1121 3 is_stmt 1 view .LVU590
 1886 0010 2046     		mov	r0, r4
 1887              	.LVL223:
 1888              		.loc 1 1121 3 is_stmt 0 view .LVU591
 1889 0012 FFF7FEFF 		bl	u8g2_font_setup_decode
 1890              	.LVL224:
1122:Drivers/u8g2_csrc/u8g2_font.c ****   *w = u8g2->font_decode.glyph_width;
 1891              		.loc 1 1122 3 is_stmt 1 view .LVU592
 1892              		.loc 1 1122 25 is_stmt 0 view .LVU593
 1893 0016 94F86030 		ldrb	r3, [r4, #96]	@ zero_extendqisi2
 1894              		.loc 1 1122 6 view .LVU594
 1895 001a 3370     		strb	r3, [r6]
1123:Drivers/u8g2_csrc/u8g2_font.c ****   *ox =  u8g2_font_decode_get_signed_bits(&(u8g2->font_decode), u8g2->font_info.bits_per_char_x);
 1896              		.loc 1 1123 3 is_stmt 1 view .LVU595
 1897              		.loc 1 1123 10 is_stmt 0 view .LVU596
 1898 001c 04F15806 		add	r6, r4, #88
 1899              	.LVL225:
 1900              		.loc 1 1123 10 view .LVU597
 1901 0020 94F86E10 		ldrb	r1, [r4, #110]	@ zero_extendqisi2
 1902 0024 3046     		mov	r0, r6
 1903 0026 FFF7FEFF 		bl	u8g2_font_decode_get_signed_bits
 1904              	.LVL226:
 1905              		.loc 1 1123 7 view .LVU598
 1906 002a 2870     		strb	r0, [r5]
ARM GAS  C:\Users\25339\AppData\Local\Temp\ccNjsSLI.s 			page 62


1124:Drivers/u8g2_csrc/u8g2_font.c ****   u8g2_font_decode_get_signed_bits(&(u8g2->font_decode), u8g2->font_info.bits_per_char_y);
 1907              		.loc 1 1124 3 is_stmt 1 view .LVU599
 1908 002c 94F86F10 		ldrb	r1, [r4, #111]	@ zero_extendqisi2
 1909 0030 3046     		mov	r0, r6
 1910 0032 FFF7FEFF 		bl	u8g2_font_decode_get_signed_bits
 1911              	.LVL227:
1125:Drivers/u8g2_csrc/u8g2_font.c ****   *dx = u8g2_font_decode_get_signed_bits(&(u8g2->font_decode), u8g2->font_info.bits_per_delta_x);
 1912              		.loc 1 1125 3 view .LVU600
 1913              		.loc 1 1125 9 is_stmt 0 view .LVU601
 1914 0036 94F87010 		ldrb	r1, [r4, #112]	@ zero_extendqisi2
 1915 003a 3046     		mov	r0, r6
 1916 003c FFF7FEFF 		bl	u8g2_font_decode_get_signed_bits
 1917              	.LVL228:
 1918              		.loc 1 1125 7 view .LVU602
 1919 0040 049B     		ldr	r3, [sp, #16]
 1920 0042 1870     		strb	r0, [r3]
 1921              	.L84:
1126:Drivers/u8g2_csrc/u8g2_font.c **** }
 1922              		.loc 1 1126 1 view .LVU603
 1923 0044 70BD     		pop	{r4, r5, r6, pc}
 1924              		.loc 1 1126 1 view .LVU604
 1925              		.cfi_endproc
 1926              	.LFE43:
 1928              		.section	.text.u8g2_calculate_exact_string_width,"ax",%progbits
 1929              		.align	1
 1930              		.syntax unified
 1931              		.thumb
 1932              		.thumb_func
 1933              		.fpu softvfp
 1935              	u8g2_calculate_exact_string_width:
 1936              	.LVL229:
 1937              	.LFB45:
1127:Drivers/u8g2_csrc/u8g2_font.c **** 
1128:Drivers/u8g2_csrc/u8g2_font.c **** /* u8g compatible GetStrX function */
1129:Drivers/u8g2_csrc/u8g2_font.c **** int8_t u8g2_GetStrX(u8g2_t *u8g2, const char *s)
1130:Drivers/u8g2_csrc/u8g2_font.c **** {
1131:Drivers/u8g2_csrc/u8g2_font.c ****   uint8_t w;
1132:Drivers/u8g2_csrc/u8g2_font.c ****   int8_t ox, dx;
1133:Drivers/u8g2_csrc/u8g2_font.c ****   u8g2_GetGlyphHorizontalProperties(u8g2, *s, &w, &ox, &dx);
1134:Drivers/u8g2_csrc/u8g2_font.c ****   return ox;
1135:Drivers/u8g2_csrc/u8g2_font.c **** }
1136:Drivers/u8g2_csrc/u8g2_font.c **** 
1137:Drivers/u8g2_csrc/u8g2_font.c **** 
1138:Drivers/u8g2_csrc/u8g2_font.c **** 
1139:Drivers/u8g2_csrc/u8g2_font.c **** static u8g2_uint_t u8g2_calculate_exact_string_width(u8g2_t *u8g2, const char *str)
1140:Drivers/u8g2_csrc/u8g2_font.c **** {
 1938              		.loc 1 1140 1 is_stmt 1 view -0
 1939              		.cfi_startproc
 1940              		@ args = 0, pretend = 0, frame = 8
 1941              		@ frame_needed = 0, uses_anonymous_args = 0
 1942              		.loc 1 1140 1 is_stmt 0 view .LVU606
 1943 0000 70B5     		push	{r4, r5, r6, lr}
 1944              	.LCFI17:
 1945              		.cfi_def_cfa_offset 16
 1946              		.cfi_offset 4, -16
 1947              		.cfi_offset 5, -12
 1948              		.cfi_offset 6, -8
ARM GAS  C:\Users\25339\AppData\Local\Temp\ccNjsSLI.s 			page 63


 1949              		.cfi_offset 14, -4
 1950 0002 84B0     		sub	sp, sp, #16
 1951              	.LCFI18:
 1952              		.cfi_def_cfa_offset 32
 1953 0004 0446     		mov	r4, r0
 1954 0006 0D46     		mov	r5, r1
1141:Drivers/u8g2_csrc/u8g2_font.c **** 
1142:Drivers/u8g2_csrc/u8g2_font.c ****   u8g2_uint_t  w;
 1955              		.loc 1 1142 3 is_stmt 1 view .LVU607
1143:Drivers/u8g2_csrc/u8g2_font.c ****   uint16_t enc;
 1956              		.loc 1 1143 3 view .LVU608
1144:Drivers/u8g2_csrc/u8g2_font.c ****   uint8_t gw; 
 1957              		.loc 1 1144 3 view .LVU609
1145:Drivers/u8g2_csrc/u8g2_font.c ****   int8_t ox, dx;
 1958              		.loc 1 1145 3 view .LVU610
1146:Drivers/u8g2_csrc/u8g2_font.c ****   
1147:Drivers/u8g2_csrc/u8g2_font.c ****   /* reset the total minimal width to zero, this will be expanded during calculation */
1148:Drivers/u8g2_csrc/u8g2_font.c ****   w = 0;
 1959              		.loc 1 1148 3 view .LVU611
 1960              	.LVL230:
 1961              	.L88:
1149:Drivers/u8g2_csrc/u8g2_font.c ****     
1150:Drivers/u8g2_csrc/u8g2_font.c ****   
1151:Drivers/u8g2_csrc/u8g2_font.c ****   /* check for empty string, width is already 0 */
1152:Drivers/u8g2_csrc/u8g2_font.c ****   do
 1962              		.loc 1 1152 3 discriminator 1 view .LVU612
1153:Drivers/u8g2_csrc/u8g2_font.c ****   {
1154:Drivers/u8g2_csrc/u8g2_font.c ****     enc = u8g2->u8x8.next_cb(u8g2_GetU8x8(u8g2), (uint8_t)*str);
 1963              		.loc 1 1154 5 discriminator 1 view .LVU613
 1964              		.loc 1 1154 21 is_stmt 0 discriminator 1 view .LVU614
 1965 0008 6368     		ldr	r3, [r4, #4]
 1966              		.loc 1 1154 11 discriminator 1 view .LVU615
 1967 000a 15F8011B 		ldrb	r1, [r5], #1	@ zero_extendqisi2
 1968              	.LVL231:
 1969              		.loc 1 1154 11 discriminator 1 view .LVU616
 1970 000e 2046     		mov	r0, r4
 1971 0010 9847     		blx	r3
 1972              	.LVL232:
1155:Drivers/u8g2_csrc/u8g2_font.c ****     str++;
 1973              		.loc 1 1155 5 is_stmt 1 discriminator 1 view .LVU617
1156:Drivers/u8g2_csrc/u8g2_font.c ****   } while( enc == 0x0fffe );
 1974              		.loc 1 1156 10 discriminator 1 view .LVU618
 1975              		.loc 1 1156 3 is_stmt 0 discriminator 1 view .LVU619
 1976 0012 4FF6FE73 		movw	r3, #65534
 1977 0016 9842     		cmp	r0, r3
 1978 0018 F6D0     		beq	.L88
1157:Drivers/u8g2_csrc/u8g2_font.c ****   
1158:Drivers/u8g2_csrc/u8g2_font.c ****   if ( enc== 0x0ffff )
 1979              		.loc 1 1158 3 is_stmt 1 view .LVU620
 1980              		.loc 1 1158 6 is_stmt 0 view .LVU621
 1981 001a 4FF6FF73 		movw	r3, #65535
 1982 001e 9842     		cmp	r0, r3
 1983 0020 3CD0     		beq	.L94
1159:Drivers/u8g2_csrc/u8g2_font.c ****      return w;
1160:Drivers/u8g2_csrc/u8g2_font.c ****   
1161:Drivers/u8g2_csrc/u8g2_font.c ****   /* get the glyph information of the first char. This must be valid, because we already checked fo
1162:Drivers/u8g2_csrc/u8g2_font.c ****   /* if *s is not inside the font, then the cached parameters of the glyph are all zero */
ARM GAS  C:\Users\25339\AppData\Local\Temp\ccNjsSLI.s 			page 64


1163:Drivers/u8g2_csrc/u8g2_font.c ****   u8g2_GetGlyphHorizontalProperties(u8g2, enc, &gw, &ox, &dx);  
 1984              		.loc 1 1163 3 is_stmt 1 view .LVU622
 1985 0022 0DF10D03 		add	r3, sp, #13
 1986 0026 0093     		str	r3, [sp]
 1987 0028 0DF10E03 		add	r3, sp, #14
 1988 002c 0DF10F02 		add	r2, sp, #15
 1989 0030 0146     		mov	r1, r0
 1990 0032 2046     		mov	r0, r4
 1991              	.LVL233:
 1992              		.loc 1 1163 3 is_stmt 0 view .LVU623
 1993 0034 FFF7FEFF 		bl	u8g2_GetGlyphHorizontalProperties
 1994              	.LVL234:
1164:Drivers/u8g2_csrc/u8g2_font.c **** 
1165:Drivers/u8g2_csrc/u8g2_font.c ****   /* strlen(s) == 1:       width = width(s[0]) */
1166:Drivers/u8g2_csrc/u8g2_font.c ****   /* strlen(s) == 2:       width = - offx(s[0]) + deltax(s[0]) + offx(s[1]) + width(s[1]) */
1167:Drivers/u8g2_csrc/u8g2_font.c ****   /* strlen(s) == 3:       width = - offx(s[0]) + deltax(s[0]) + deltax(s[1]) + offx(s[2]) + width(
1168:Drivers/u8g2_csrc/u8g2_font.c ****   
1169:Drivers/u8g2_csrc/u8g2_font.c ****   /* assume that the string has size 2 or more, than start with negative offset-x */
1170:Drivers/u8g2_csrc/u8g2_font.c ****   /* for string with size 1, this will be nullified after the loop */
1171:Drivers/u8g2_csrc/u8g2_font.c ****   w = -ox;  
 1995              		.loc 1 1171 3 is_stmt 1 view .LVU624
 1996              		.loc 1 1171 5 is_stmt 0 view .LVU625
 1997 0038 9DF80E30 		ldrb	r3, [sp, #14]	@ zero_extendqisi2
 1998 003c 5B42     		rsbs	r3, r3, #0
 1999 003e DEB2     		uxtb	r6, r3
 2000              	.LVL235:
 2001              	.L90:
1172:Drivers/u8g2_csrc/u8g2_font.c ****   for(;;)
 2002              		.loc 1 1172 3 is_stmt 1 discriminator 1 view .LVU626
1173:Drivers/u8g2_csrc/u8g2_font.c ****   {
1174:Drivers/u8g2_csrc/u8g2_font.c ****     
1175:Drivers/u8g2_csrc/u8g2_font.c ****     /* check and stop if the end of the string is reached */
1176:Drivers/u8g2_csrc/u8g2_font.c ****     do
 2003              		.loc 1 1176 5 discriminator 1 view .LVU627
1177:Drivers/u8g2_csrc/u8g2_font.c ****     {
1178:Drivers/u8g2_csrc/u8g2_font.c ****       enc = u8g2->u8x8.next_cb(u8g2_GetU8x8(u8g2), (uint8_t)*str);
 2004              		.loc 1 1178 7 discriminator 1 view .LVU628
 2005              		.loc 1 1178 23 is_stmt 0 discriminator 1 view .LVU629
 2006 0040 6368     		ldr	r3, [r4, #4]
 2007              		.loc 1 1178 13 discriminator 1 view .LVU630
 2008 0042 15F8011B 		ldrb	r1, [r5], #1	@ zero_extendqisi2
 2009              	.LVL236:
 2010              		.loc 1 1178 13 discriminator 1 view .LVU631
 2011 0046 2046     		mov	r0, r4
 2012 0048 9847     		blx	r3
 2013              	.LVL237:
 2014 004a 0146     		mov	r1, r0
 2015              	.LVL238:
1179:Drivers/u8g2_csrc/u8g2_font.c ****       str++;
 2016              		.loc 1 1179 7 is_stmt 1 discriminator 1 view .LVU632
1180:Drivers/u8g2_csrc/u8g2_font.c ****     } while( enc == 0x0fffe );
 2017              		.loc 1 1180 12 discriminator 1 view .LVU633
 2018              		.loc 1 1180 5 is_stmt 0 discriminator 1 view .LVU634
 2019 004c 4FF6FE73 		movw	r3, #65534
 2020 0050 9842     		cmp	r0, r3
 2021 0052 F5D0     		beq	.L90
1181:Drivers/u8g2_csrc/u8g2_font.c ****     if ( enc== 0x0ffff )
ARM GAS  C:\Users\25339\AppData\Local\Temp\ccNjsSLI.s 			page 65


 2022              		.loc 1 1181 5 is_stmt 1 view .LVU635
 2023              		.loc 1 1181 8 is_stmt 0 view .LVU636
 2024 0054 4FF6FF73 		movw	r3, #65535
 2025 0058 9842     		cmp	r0, r3
 2026 005a 0ED0     		beq	.L92
1182:Drivers/u8g2_csrc/u8g2_font.c ****       break;
1183:Drivers/u8g2_csrc/u8g2_font.c **** 
1184:Drivers/u8g2_csrc/u8g2_font.c ****     u8g2_GetGlyphHorizontalProperties(u8g2, enc, &gw, &ox, &dx);  
 2027              		.loc 1 1184 5 is_stmt 1 view .LVU637
 2028 005c 0DF10D03 		add	r3, sp, #13
 2029 0060 0093     		str	r3, [sp]
 2030 0062 0DF10E03 		add	r3, sp, #14
 2031 0066 0DF10F02 		add	r2, sp, #15
 2032 006a 2046     		mov	r0, r4
 2033              	.LVL239:
 2034              		.loc 1 1184 5 is_stmt 0 view .LVU638
 2035 006c FFF7FEFF 		bl	u8g2_GetGlyphHorizontalProperties
 2036              	.LVL240:
1185:Drivers/u8g2_csrc/u8g2_font.c ****     
1186:Drivers/u8g2_csrc/u8g2_font.c ****     /* if there are still more characters, add the delta to the next glyph */
1187:Drivers/u8g2_csrc/u8g2_font.c ****     w += dx;    
 2037              		.loc 1 1187 5 is_stmt 1 view .LVU639
 2038              		.loc 1 1187 7 is_stmt 0 view .LVU640
 2039 0070 9DF80D30 		ldrb	r3, [sp, #13]	@ zero_extendqisi2
 2040 0074 3344     		add	r3, r3, r6
 2041 0076 DEB2     		uxtb	r6, r3
 2042              	.LVL241:
1172:Drivers/u8g2_csrc/u8g2_font.c ****   {
 2043              		.loc 1 1172 8 is_stmt 1 view .LVU641
1172:Drivers/u8g2_csrc/u8g2_font.c ****   {
 2044              		.loc 1 1172 3 is_stmt 0 view .LVU642
 2045 0078 E2E7     		b	.L90
 2046              	.LVL242:
 2047              	.L92:
1188:Drivers/u8g2_csrc/u8g2_font.c ****   }
1189:Drivers/u8g2_csrc/u8g2_font.c ****   
1190:Drivers/u8g2_csrc/u8g2_font.c ****   /* finally calculate the width of the last char */
1191:Drivers/u8g2_csrc/u8g2_font.c ****   /* here is another exception, if the last char is a black, use the dx value instead */
1192:Drivers/u8g2_csrc/u8g2_font.c ****   if ( enc != ' ' )
 2048              		.loc 1 1192 3 is_stmt 1 view .LVU643
 2049              		.loc 1 1192 6 is_stmt 0 view .LVU644
 2050 007a 2028     		cmp	r0, #32
 2051 007c 09D0     		beq	.L93
1193:Drivers/u8g2_csrc/u8g2_font.c ****   {
1194:Drivers/u8g2_csrc/u8g2_font.c ****     /* if g was not updated in the for loop (strlen() == 1), then the initial offset x gets removed
1195:Drivers/u8g2_csrc/u8g2_font.c ****     w += gw;
 2052              		.loc 1 1195 5 is_stmt 1 view .LVU645
 2053              		.loc 1 1195 7 is_stmt 0 view .LVU646
 2054 007e 9DF80F30 		ldrb	r3, [sp, #15]	@ zero_extendqisi2
 2055 0082 3344     		add	r3, r3, r6
 2056 0084 DBB2     		uxtb	r3, r3
 2057              	.LVL243:
1196:Drivers/u8g2_csrc/u8g2_font.c ****     w += ox;
 2058              		.loc 1 1196 5 is_stmt 1 view .LVU647
 2059              		.loc 1 1196 7 is_stmt 0 view .LVU648
 2060 0086 9DF80E00 		ldrb	r0, [sp, #14]	@ zero_extendqisi2
 2061              	.LVL244:
ARM GAS  C:\Users\25339\AppData\Local\Temp\ccNjsSLI.s 			page 66


 2062              		.loc 1 1196 7 view .LVU649
 2063 008a 0344     		add	r3, r3, r0
 2064              	.LVL245:
 2065              		.loc 1 1196 7 view .LVU650
 2066 008c D8B2     		uxtb	r0, r3
 2067              	.LVL246:
 2068              	.L89:
1197:Drivers/u8g2_csrc/u8g2_font.c ****   }
1198:Drivers/u8g2_csrc/u8g2_font.c ****   else
1199:Drivers/u8g2_csrc/u8g2_font.c ****   {
1200:Drivers/u8g2_csrc/u8g2_font.c ****     w += dx;
1201:Drivers/u8g2_csrc/u8g2_font.c ****   }
1202:Drivers/u8g2_csrc/u8g2_font.c ****   
1203:Drivers/u8g2_csrc/u8g2_font.c ****   
1204:Drivers/u8g2_csrc/u8g2_font.c ****   return w;
1205:Drivers/u8g2_csrc/u8g2_font.c **** 	
1206:Drivers/u8g2_csrc/u8g2_font.c **** }
 2069              		.loc 1 1206 1 view .LVU651
 2070 008e 04B0     		add	sp, sp, #16
 2071              	.LCFI19:
 2072              		.cfi_remember_state
 2073              		.cfi_def_cfa_offset 16
 2074              		@ sp needed
 2075 0090 70BD     		pop	{r4, r5, r6, pc}
 2076              	.LVL247:
 2077              	.L93:
 2078              	.LCFI20:
 2079              		.cfi_restore_state
1200:Drivers/u8g2_csrc/u8g2_font.c ****   }
 2080              		.loc 1 1200 5 is_stmt 1 view .LVU652
1200:Drivers/u8g2_csrc/u8g2_font.c ****   }
 2081              		.loc 1 1200 7 is_stmt 0 view .LVU653
 2082 0092 9DF80D30 		ldrb	r3, [sp, #13]	@ zero_extendqisi2
 2083 0096 3344     		add	r3, r3, r6
 2084 0098 D8B2     		uxtb	r0, r3
 2085              	.LVL248:
1200:Drivers/u8g2_csrc/u8g2_font.c ****   }
 2086              		.loc 1 1200 7 view .LVU654
 2087 009a F8E7     		b	.L89
 2088              	.LVL249:
 2089              	.L94:
1159:Drivers/u8g2_csrc/u8g2_font.c ****   
 2090              		.loc 1 1159 13 view .LVU655
 2091 009c 0020     		movs	r0, #0
 2092              	.LVL250:
1159:Drivers/u8g2_csrc/u8g2_font.c ****   
 2093              		.loc 1 1159 13 view .LVU656
 2094 009e F6E7     		b	.L89
 2095              		.cfi_endproc
 2096              	.LFE45:
 2098              		.section	.text.u8g2_IsGlyph,"ax",%progbits
 2099              		.align	1
 2100              		.global	u8g2_IsGlyph
 2101              		.syntax unified
 2102              		.thumb
 2103              		.thumb_func
 2104              		.fpu softvfp
ARM GAS  C:\Users\25339\AppData\Local\Temp\ccNjsSLI.s 			page 67


 2106              	u8g2_IsGlyph:
 2107              	.LVL251:
 2108              	.LFB18:
 697:Drivers/u8g2_csrc/u8g2_font.c ****   /* updated to new code */
 2109              		.loc 1 697 1 is_stmt 1 view -0
 2110              		.cfi_startproc
 2111              		@ args = 0, pretend = 0, frame = 0
 2112              		@ frame_needed = 0, uses_anonymous_args = 0
 697:Drivers/u8g2_csrc/u8g2_font.c ****   /* updated to new code */
 2113              		.loc 1 697 1 is_stmt 0 view .LVU658
 2114 0000 08B5     		push	{r3, lr}
 2115              	.LCFI21:
 2116              		.cfi_def_cfa_offset 8
 2117              		.cfi_offset 3, -8
 2118              		.cfi_offset 14, -4
 699:Drivers/u8g2_csrc/u8g2_font.c ****     return 1;
 2119              		.loc 1 699 3 is_stmt 1 view .LVU659
 699:Drivers/u8g2_csrc/u8g2_font.c ****     return 1;
 2120              		.loc 1 699 8 is_stmt 0 view .LVU660
 2121 0002 FFF7FEFF 		bl	u8g2_font_get_glyph_data
 2122              	.LVL252:
 699:Drivers/u8g2_csrc/u8g2_font.c ****     return 1;
 2123              		.loc 1 699 6 view .LVU661
 2124 0006 00B1     		cbz	r0, .L97
 700:Drivers/u8g2_csrc/u8g2_font.c ****   return 0;
 2125              		.loc 1 700 12 view .LVU662
 2126 0008 0120     		movs	r0, #1
 2127              	.L97:
 702:Drivers/u8g2_csrc/u8g2_font.c **** 
 2128              		.loc 1 702 1 view .LVU663
 2129 000a 08BD     		pop	{r3, pc}
 2130              		.cfi_endproc
 2131              	.LFE18:
 2133              		.section	.text.u8g2_GetGlyphWidth,"ax",%progbits
 2134              		.align	1
 2135              		.global	u8g2_GetGlyphWidth
 2136              		.syntax unified
 2137              		.thumb
 2138              		.thumb_func
 2139              		.fpu softvfp
 2141              	u8g2_GetGlyphWidth:
 2142              	.LVL253:
 2143              	.LFB19:
 706:Drivers/u8g2_csrc/u8g2_font.c ****   const uint8_t *glyph_data = u8g2_font_get_glyph_data(u8g2, requested_encoding);
 2144              		.loc 1 706 1 is_stmt 1 view -0
 2145              		.cfi_startproc
 2146              		@ args = 0, pretend = 0, frame = 0
 2147              		@ frame_needed = 0, uses_anonymous_args = 0
 706:Drivers/u8g2_csrc/u8g2_font.c ****   const uint8_t *glyph_data = u8g2_font_get_glyph_data(u8g2, requested_encoding);
 2148              		.loc 1 706 1 is_stmt 0 view .LVU665
 2149 0000 38B5     		push	{r3, r4, r5, lr}
 2150              	.LCFI22:
 2151              		.cfi_def_cfa_offset 16
 2152              		.cfi_offset 3, -16
 2153              		.cfi_offset 4, -12
 2154              		.cfi_offset 5, -8
 2155              		.cfi_offset 14, -4
ARM GAS  C:\Users\25339\AppData\Local\Temp\ccNjsSLI.s 			page 68


 2156 0002 0446     		mov	r4, r0
 707:Drivers/u8g2_csrc/u8g2_font.c ****   if ( glyph_data == NULL )
 2157              		.loc 1 707 3 is_stmt 1 view .LVU666
 707:Drivers/u8g2_csrc/u8g2_font.c ****   if ( glyph_data == NULL )
 2158              		.loc 1 707 31 is_stmt 0 view .LVU667
 2159 0004 FFF7FEFF 		bl	u8g2_font_get_glyph_data
 2160              	.LVL254:
 708:Drivers/u8g2_csrc/u8g2_font.c ****     return 0; 
 2161              		.loc 1 708 3 is_stmt 1 view .LVU668
 708:Drivers/u8g2_csrc/u8g2_font.c ****     return 0; 
 2162              		.loc 1 708 6 is_stmt 0 view .LVU669
 2163 0008 B8B1     		cbz	r0, .L102
 2164 000a 0146     		mov	r1, r0
 711:Drivers/u8g2_csrc/u8g2_font.c ****   u8g2->glyph_x_offset = u8g2_font_decode_get_signed_bits(&(u8g2->font_decode), u8g2->font_info.bit
 2165              		.loc 1 711 3 is_stmt 1 view .LVU670
 2166 000c 2046     		mov	r0, r4
 2167              	.LVL255:
 711:Drivers/u8g2_csrc/u8g2_font.c ****   u8g2->glyph_x_offset = u8g2_font_decode_get_signed_bits(&(u8g2->font_decode), u8g2->font_info.bit
 2168              		.loc 1 711 3 is_stmt 0 view .LVU671
 2169 000e FFF7FEFF 		bl	u8g2_font_setup_decode
 2170              	.LVL256:
 712:Drivers/u8g2_csrc/u8g2_font.c ****   u8g2_font_decode_get_signed_bits(&(u8g2->font_decode), u8g2->font_info.bits_per_char_y);
 2171              		.loc 1 712 3 is_stmt 1 view .LVU672
 712:Drivers/u8g2_csrc/u8g2_font.c ****   u8g2_font_decode_get_signed_bits(&(u8g2->font_decode), u8g2->font_info.bits_per_char_y);
 2172              		.loc 1 712 26 is_stmt 0 view .LVU673
 2173 0012 04F15805 		add	r5, r4, #88
 2174 0016 94F86E10 		ldrb	r1, [r4, #110]	@ zero_extendqisi2
 2175 001a 2846     		mov	r0, r5
 2176 001c FFF7FEFF 		bl	u8g2_font_decode_get_signed_bits
 2177              	.LVL257:
 712:Drivers/u8g2_csrc/u8g2_font.c ****   u8g2_font_decode_get_signed_bits(&(u8g2->font_decode), u8g2->font_info.bits_per_char_y);
 2178              		.loc 1 712 24 view .LVU674
 2179 0020 84F88400 		strb	r0, [r4, #132]
 713:Drivers/u8g2_csrc/u8g2_font.c ****   
 2180              		.loc 1 713 3 is_stmt 1 view .LVU675
 2181 0024 94F86F10 		ldrb	r1, [r4, #111]	@ zero_extendqisi2
 2182 0028 2846     		mov	r0, r5
 2183 002a FFF7FEFF 		bl	u8g2_font_decode_get_signed_bits
 2184              	.LVL258:
 717:Drivers/u8g2_csrc/u8g2_font.c **** }
 2185              		.loc 1 717 3 view .LVU676
 717:Drivers/u8g2_csrc/u8g2_font.c **** }
 2186              		.loc 1 717 10 is_stmt 0 view .LVU677
 2187 002e 94F87010 		ldrb	r1, [r4, #112]	@ zero_extendqisi2
 2188 0032 2846     		mov	r0, r5
 2189 0034 FFF7FEFF 		bl	u8g2_font_decode_get_signed_bits
 2190              	.LVL259:
 2191              	.L101:
 718:Drivers/u8g2_csrc/u8g2_font.c **** 
 2192              		.loc 1 718 1 view .LVU678
 2193 0038 38BD     		pop	{r3, r4, r5, pc}
 2194              	.LVL260:
 2195              	.L102:
 709:Drivers/u8g2_csrc/u8g2_font.c ****   
 2196              		.loc 1 709 12 view .LVU679
 2197 003a 0020     		movs	r0, #0
 2198              	.LVL261:
ARM GAS  C:\Users\25339\AppData\Local\Temp\ccNjsSLI.s 			page 69


 709:Drivers/u8g2_csrc/u8g2_font.c ****   
 2199              		.loc 1 709 12 view .LVU680
 2200 003c FCE7     		b	.L101
 2201              		.cfi_endproc
 2202              	.LFE19:
 2204              		.section	.text.u8g2_string_width,"ax",%progbits
 2205              		.align	1
 2206              		.syntax unified
 2207              		.thumb
 2208              		.thumb_func
 2209              		.fpu softvfp
 2211              	u8g2_string_width:
 2212              	.LVL262:
 2213              	.LFB42:
1076:Drivers/u8g2_csrc/u8g2_font.c ****   uint16_t e;
 2214              		.loc 1 1076 1 is_stmt 1 view -0
 2215              		.cfi_startproc
 2216              		@ args = 0, pretend = 0, frame = 0
 2217              		@ frame_needed = 0, uses_anonymous_args = 0
1076:Drivers/u8g2_csrc/u8g2_font.c ****   uint16_t e;
 2218              		.loc 1 1076 1 is_stmt 0 view .LVU682
 2219 0000 F8B5     		push	{r3, r4, r5, r6, r7, lr}
 2220              	.LCFI23:
 2221              		.cfi_def_cfa_offset 24
 2222              		.cfi_offset 3, -24
 2223              		.cfi_offset 4, -20
 2224              		.cfi_offset 5, -16
 2225              		.cfi_offset 6, -12
 2226              		.cfi_offset 7, -8
 2227              		.cfi_offset 14, -4
 2228 0002 0546     		mov	r5, r0
 2229 0004 0C46     		mov	r4, r1
1077:Drivers/u8g2_csrc/u8g2_font.c ****   u8g2_uint_t  w, dx;
 2230              		.loc 1 1077 3 is_stmt 1 view .LVU683
1078:Drivers/u8g2_csrc/u8g2_font.c ****   
 2231              		.loc 1 1078 3 view .LVU684
1080:Drivers/u8g2_csrc/u8g2_font.c ****   u8x8_utf8_init(u8g2_GetU8x8(u8g2));
 2232              		.loc 1 1080 3 view .LVU685
1080:Drivers/u8g2_csrc/u8g2_font.c ****   u8x8_utf8_init(u8g2_GetU8x8(u8g2));
 2233              		.loc 1 1080 33 is_stmt 0 view .LVU686
 2234 0006 0026     		movs	r6, #0
 2235 0008 80F86060 		strb	r6, [r0, #96]
1081:Drivers/u8g2_csrc/u8g2_font.c ****   
 2236              		.loc 1 1081 3 is_stmt 1 view .LVU687
 2237 000c FFF7FEFF 		bl	u8x8_utf8_init
 2238              	.LVL263:
1084:Drivers/u8g2_csrc/u8g2_font.c ****   dx = 0;
 2239              		.loc 1 1084 3 view .LVU688
1085:Drivers/u8g2_csrc/u8g2_font.c **** 
 2240              		.loc 1 1085 3 view .LVU689
1085:Drivers/u8g2_csrc/u8g2_font.c **** 
 2241              		.loc 1 1085 6 is_stmt 0 view .LVU690
 2242 0010 3746     		mov	r7, r6
 2243 0012 06E0     		b	.L105
 2244              	.LVL264:
 2245              	.L110:
1097:Drivers/u8g2_csrc/u8g2_font.c ****       w += dx;
ARM GAS  C:\Users\25339\AppData\Local\Temp\ccNjsSLI.s 			page 70


 2246              		.loc 1 1097 7 is_stmt 1 view .LVU691
1097:Drivers/u8g2_csrc/u8g2_font.c ****       w += dx;
 2247              		.loc 1 1097 12 is_stmt 0 view .LVU692
 2248 0014 0146     		mov	r1, r0
 2249 0016 2846     		mov	r0, r5
 2250              	.LVL265:
1097:Drivers/u8g2_csrc/u8g2_font.c ****       w += dx;
 2251              		.loc 1 1097 12 view .LVU693
 2252 0018 FFF7FEFF 		bl	u8g2_GetGlyphWidth
 2253              	.LVL266:
1097:Drivers/u8g2_csrc/u8g2_font.c ****       w += dx;
 2254              		.loc 1 1097 10 view .LVU694
 2255 001c C7B2     		uxtb	r7, r0
 2256              	.LVL267:
1098:Drivers/u8g2_csrc/u8g2_font.c ****     }
 2257              		.loc 1 1098 7 is_stmt 1 view .LVU695
1098:Drivers/u8g2_csrc/u8g2_font.c ****     }
 2258              		.loc 1 1098 9 is_stmt 0 view .LVU696
 2259 001e 3E44     		add	r6, r6, r7
 2260              	.LVL268:
1098:Drivers/u8g2_csrc/u8g2_font.c ****     }
 2261              		.loc 1 1098 9 view .LVU697
 2262 0020 F6B2     		uxtb	r6, r6
 2263              	.LVL269:
 2264              	.L105:
1089:Drivers/u8g2_csrc/u8g2_font.c ****   {
 2265              		.loc 1 1089 3 is_stmt 1 view .LVU698
1091:Drivers/u8g2_csrc/u8g2_font.c ****     if ( e == 0x0ffff )
 2266              		.loc 1 1091 5 view .LVU699
1091:Drivers/u8g2_csrc/u8g2_font.c ****     if ( e == 0x0ffff )
 2267              		.loc 1 1091 19 is_stmt 0 view .LVU700
 2268 0022 6B68     		ldr	r3, [r5, #4]
1091:Drivers/u8g2_csrc/u8g2_font.c ****     if ( e == 0x0ffff )
 2269              		.loc 1 1091 9 view .LVU701
 2270 0024 2178     		ldrb	r1, [r4]	@ zero_extendqisi2
 2271 0026 2846     		mov	r0, r5
 2272 0028 9847     		blx	r3
 2273              	.LVL270:
1092:Drivers/u8g2_csrc/u8g2_font.c ****       break;
 2274              		.loc 1 1092 5 is_stmt 1 view .LVU702
1092:Drivers/u8g2_csrc/u8g2_font.c ****       break;
 2275              		.loc 1 1092 8 is_stmt 0 view .LVU703
 2276 002a 4FF6FF73 		movw	r3, #65535
 2277 002e 9842     		cmp	r0, r3
 2278 0030 05D0     		beq	.L106
1094:Drivers/u8g2_csrc/u8g2_font.c ****     if ( e != 0x0fffe )
 2279              		.loc 1 1094 5 is_stmt 1 view .LVU704
1094:Drivers/u8g2_csrc/u8g2_font.c ****     if ( e != 0x0fffe )
 2280              		.loc 1 1094 8 is_stmt 0 view .LVU705
 2281 0032 0134     		adds	r4, r4, #1
 2282              	.LVL271:
1095:Drivers/u8g2_csrc/u8g2_font.c ****     {
 2283              		.loc 1 1095 5 is_stmt 1 view .LVU706
1095:Drivers/u8g2_csrc/u8g2_font.c ****     {
 2284              		.loc 1 1095 8 is_stmt 0 view .LVU707
 2285 0034 4FF6FE73 		movw	r3, #65534
 2286 0038 9842     		cmp	r0, r3
ARM GAS  C:\Users\25339\AppData\Local\Temp\ccNjsSLI.s 			page 71


 2287 003a F2D0     		beq	.L105
 2288 003c EAE7     		b	.L110
 2289              	.L106:
1103:Drivers/u8g2_csrc/u8g2_font.c ****   {
 2290              		.loc 1 1103 3 is_stmt 1 view .LVU708
1103:Drivers/u8g2_csrc/u8g2_font.c ****   {
 2291              		.loc 1 1103 25 is_stmt 0 view .LVU709
 2292 003e 95F96030 		ldrsb	r3, [r5, #96]
1103:Drivers/u8g2_csrc/u8g2_font.c ****   {
 2293              		.loc 1 1103 6 view .LVU710
 2294 0042 43B1     		cbz	r3, .L108
1105:Drivers/u8g2_csrc/u8g2_font.c ****     w += u8g2->font_decode.glyph_width;  /* the real pixel width of the glyph, sideeffect of GetGly
 2295              		.loc 1 1105 5 is_stmt 1 view .LVU711
1105:Drivers/u8g2_csrc/u8g2_font.c ****     w += u8g2->font_decode.glyph_width;  /* the real pixel width of the glyph, sideeffect of GetGly
 2296              		.loc 1 1105 7 is_stmt 0 view .LVU712
 2297 0044 F61B     		subs	r6, r6, r7
 2298              	.LVL272:
1105:Drivers/u8g2_csrc/u8g2_font.c ****     w += u8g2->font_decode.glyph_width;  /* the real pixel width of the glyph, sideeffect of GetGly
 2299              		.loc 1 1105 7 view .LVU713
 2300 0046 F6B2     		uxtb	r6, r6
 2301              	.LVL273:
1106:Drivers/u8g2_csrc/u8g2_font.c ****     /* issue #46: we have to add the x offset also */
 2302              		.loc 1 1106 5 is_stmt 1 view .LVU714
1106:Drivers/u8g2_csrc/u8g2_font.c ****     /* issue #46: we have to add the x offset also */
 2303              		.loc 1 1106 27 is_stmt 0 view .LVU715
 2304 0048 DBB2     		uxtb	r3, r3
1106:Drivers/u8g2_csrc/u8g2_font.c ****     /* issue #46: we have to add the x offset also */
 2305              		.loc 1 1106 7 view .LVU716
 2306 004a 1E44     		add	r6, r6, r3
 2307              	.LVL274:
1106:Drivers/u8g2_csrc/u8g2_font.c ****     /* issue #46: we have to add the x offset also */
 2308              		.loc 1 1106 7 view .LVU717
 2309 004c F6B2     		uxtb	r6, r6
 2310              	.LVL275:
1108:Drivers/u8g2_csrc/u8g2_font.c ****   }
 2311              		.loc 1 1108 5 is_stmt 1 view .LVU718
1108:Drivers/u8g2_csrc/u8g2_font.c ****   }
 2312              		.loc 1 1108 14 is_stmt 0 view .LVU719
 2313 004e 95F88430 		ldrb	r3, [r5, #132]	@ zero_extendqisi2
1108:Drivers/u8g2_csrc/u8g2_font.c ****   }
 2314              		.loc 1 1108 7 view .LVU720
 2315 0052 1E44     		add	r6, r6, r3
 2316              	.LVL276:
1108:Drivers/u8g2_csrc/u8g2_font.c ****   }
 2317              		.loc 1 1108 7 view .LVU721
 2318 0054 F6B2     		uxtb	r6, r6
 2319              	.LVL277:
 2320              	.L108:
1112:Drivers/u8g2_csrc/u8g2_font.c **** }
 2321              		.loc 1 1112 3 is_stmt 1 view .LVU722
1113:Drivers/u8g2_csrc/u8g2_font.c **** 
 2322              		.loc 1 1113 1 is_stmt 0 view .LVU723
 2323 0056 3046     		mov	r0, r6
 2324              	.LVL278:
1113:Drivers/u8g2_csrc/u8g2_font.c **** 
 2325              		.loc 1 1113 1 view .LVU724
 2326 0058 F8BD     		pop	{r3, r4, r5, r6, r7, pc}
ARM GAS  C:\Users\25339\AppData\Local\Temp\ccNjsSLI.s 			page 72


1113:Drivers/u8g2_csrc/u8g2_font.c **** 
 2327              		.loc 1 1113 1 view .LVU725
 2328              		.cfi_endproc
 2329              	.LFE42:
 2331              		.section	.text.u8g2_SetFontMode,"ax",%progbits
 2332              		.align	1
 2333              		.global	u8g2_SetFontMode
 2334              		.syntax unified
 2335              		.thumb
 2336              		.thumb_func
 2337              		.fpu softvfp
 2339              	u8g2_SetFontMode:
 2340              	.LVL279:
 2341              	.LFB20:
 729:Drivers/u8g2_csrc/u8g2_font.c ****   u8g2->font_decode.is_transparent = is_transparent;		// new font procedures
 2342              		.loc 1 729 1 is_stmt 1 view -0
 2343              		.cfi_startproc
 2344              		@ args = 0, pretend = 0, frame = 0
 2345              		@ frame_needed = 0, uses_anonymous_args = 0
 2346              		@ link register save eliminated.
 730:Drivers/u8g2_csrc/u8g2_font.c **** }
 2347              		.loc 1 730 3 view .LVU727
 730:Drivers/u8g2_csrc/u8g2_font.c **** }
 2348              		.loc 1 730 36 is_stmt 0 view .LVU728
 2349 0000 80F86310 		strb	r1, [r0, #99]
 731:Drivers/u8g2_csrc/u8g2_font.c **** 
 2350              		.loc 1 731 1 view .LVU729
 2351 0004 7047     		bx	lr
 2352              		.cfi_endproc
 2353              	.LFE20:
 2355              		.section	.text.u8g2_DrawGlyph,"ax",%progbits
 2356              		.align	1
 2357              		.global	u8g2_DrawGlyph
 2358              		.syntax unified
 2359              		.thumb
 2360              		.thumb_func
 2361              		.fpu softvfp
 2363              	u8g2_DrawGlyph:
 2364              	.LVL280:
 2365              	.LFB21:
 734:Drivers/u8g2_csrc/u8g2_font.c **** #ifdef U8G2_WITH_FONT_ROTATION
 2366              		.loc 1 734 1 is_stmt 1 view -0
 2367              		.cfi_startproc
 2368              		@ args = 0, pretend = 0, frame = 0
 2369              		@ frame_needed = 0, uses_anonymous_args = 0
 734:Drivers/u8g2_csrc/u8g2_font.c **** #ifdef U8G2_WITH_FONT_ROTATION
 2370              		.loc 1 734 1 is_stmt 0 view .LVU731
 2371 0000 F8B5     		push	{r3, r4, r5, r6, r7, lr}
 2372              	.LCFI24:
 2373              		.cfi_def_cfa_offset 24
 2374              		.cfi_offset 3, -24
 2375              		.cfi_offset 4, -20
 2376              		.cfi_offset 5, -16
 2377              		.cfi_offset 6, -12
 2378              		.cfi_offset 7, -8
 2379              		.cfi_offset 14, -4
 2380 0002 0446     		mov	r4, r0
ARM GAS  C:\Users\25339\AppData\Local\Temp\ccNjsSLI.s 			page 73


 2381 0004 0D46     		mov	r5, r1
 2382 0006 1646     		mov	r6, r2
 2383 0008 1F46     		mov	r7, r3
 736:Drivers/u8g2_csrc/u8g2_font.c ****   {
 2384              		.loc 1 736 3 is_stmt 1 view .LVU732
 736:Drivers/u8g2_csrc/u8g2_font.c ****   {
 2385              		.loc 1 736 27 is_stmt 0 view .LVU733
 2386 000a 90F86630 		ldrb	r3, [r0, #102]	@ zero_extendqisi2
 2387              	.LVL281:
 736:Drivers/u8g2_csrc/u8g2_font.c ****   {
 2388              		.loc 1 736 27 view .LVU734
 2389 000e 032B     		cmp	r3, #3
 2390 0010 07D8     		bhi	.L113
 2391 0012 DFE803F0 		tbb	[pc, r3]
 2392              	.LVL282:
 2393              	.L115:
 2394 0016 02       		.byte	(.L118-.L115)/2
 2395 0017 0D       		.byte	(.L117-.L115)/2
 2396 0018 12       		.byte	(.L116-.L115)/2
 2397 0019 17       		.byte	(.L114-.L115)/2
 2398              		.p2align 1
 2399              	.L118:
 739:Drivers/u8g2_csrc/u8g2_font.c ****       break;
 2400              		.loc 1 739 7 is_stmt 1 view .LVU735
 739:Drivers/u8g2_csrc/u8g2_font.c ****       break;
 2401              		.loc 1 739 16 is_stmt 0 view .LVU736
 2402 001a 436D     		ldr	r3, [r0, #84]
 739:Drivers/u8g2_csrc/u8g2_font.c ****       break;
 2403              		.loc 1 739 12 view .LVU737
 2404 001c 9847     		blx	r3
 2405              	.LVL283:
 739:Drivers/u8g2_csrc/u8g2_font.c ****       break;
 2406              		.loc 1 739 9 view .LVU738
 2407 001e 0644     		add	r6, r6, r0
 2408 0020 F6B2     		uxtb	r6, r6
 2409              	.LVL284:
 740:Drivers/u8g2_csrc/u8g2_font.c ****     case 1:
 2410              		.loc 1 740 7 is_stmt 1 view .LVU739
 2411              	.L113:
 754:Drivers/u8g2_csrc/u8g2_font.c **** }
 2412              		.loc 1 754 3 view .LVU740
 754:Drivers/u8g2_csrc/u8g2_font.c **** }
 2413              		.loc 1 754 10 is_stmt 0 view .LVU741
 2414 0022 3B46     		mov	r3, r7
 2415 0024 3246     		mov	r2, r6
 2416 0026 2946     		mov	r1, r5
 2417 0028 2046     		mov	r0, r4
 2418 002a FFF7FEFF 		bl	u8g2_font_draw_glyph
 2419              	.LVL285:
 755:Drivers/u8g2_csrc/u8g2_font.c **** 
 2420              		.loc 1 755 1 view .LVU742
 2421 002e F8BD     		pop	{r3, r4, r5, r6, r7, pc}
 2422              	.LVL286:
 2423              	.L117:
 742:Drivers/u8g2_csrc/u8g2_font.c ****       break;
 2424              		.loc 1 742 7 is_stmt 1 view .LVU743
 742:Drivers/u8g2_csrc/u8g2_font.c ****       break;
ARM GAS  C:\Users\25339\AppData\Local\Temp\ccNjsSLI.s 			page 74


 2425              		.loc 1 742 16 is_stmt 0 view .LVU744
 2426 0030 436D     		ldr	r3, [r0, #84]
 742:Drivers/u8g2_csrc/u8g2_font.c ****       break;
 2427              		.loc 1 742 12 view .LVU745
 2428 0032 9847     		blx	r3
 2429              	.LVL287:
 742:Drivers/u8g2_csrc/u8g2_font.c ****       break;
 2430              		.loc 1 742 9 view .LVU746
 2431 0034 2D1A     		subs	r5, r5, r0
 2432 0036 EDB2     		uxtb	r5, r5
 2433              	.LVL288:
 743:Drivers/u8g2_csrc/u8g2_font.c ****     case 2:
 2434              		.loc 1 743 7 is_stmt 1 view .LVU747
 2435 0038 F3E7     		b	.L113
 2436              	.LVL289:
 2437              	.L116:
 745:Drivers/u8g2_csrc/u8g2_font.c ****       break;
 2438              		.loc 1 745 7 view .LVU748
 745:Drivers/u8g2_csrc/u8g2_font.c ****       break;
 2439              		.loc 1 745 16 is_stmt 0 view .LVU749
 2440 003a 436D     		ldr	r3, [r0, #84]
 745:Drivers/u8g2_csrc/u8g2_font.c ****       break;
 2441              		.loc 1 745 12 view .LVU750
 2442 003c 9847     		blx	r3
 2443              	.LVL290:
 745:Drivers/u8g2_csrc/u8g2_font.c ****       break;
 2444              		.loc 1 745 9 view .LVU751
 2445 003e 361A     		subs	r6, r6, r0
 2446 0040 F6B2     		uxtb	r6, r6
 2447              	.LVL291:
 746:Drivers/u8g2_csrc/u8g2_font.c ****     case 3:
 2448              		.loc 1 746 7 is_stmt 1 view .LVU752
 2449 0042 EEE7     		b	.L113
 2450              	.LVL292:
 2451              	.L114:
 748:Drivers/u8g2_csrc/u8g2_font.c ****       break;
 2452              		.loc 1 748 7 view .LVU753
 748:Drivers/u8g2_csrc/u8g2_font.c ****       break;
 2453              		.loc 1 748 16 is_stmt 0 view .LVU754
 2454 0044 436D     		ldr	r3, [r0, #84]
 748:Drivers/u8g2_csrc/u8g2_font.c ****       break;
 2455              		.loc 1 748 12 view .LVU755
 2456 0046 9847     		blx	r3
 2457              	.LVL293:
 748:Drivers/u8g2_csrc/u8g2_font.c ****       break;
 2458              		.loc 1 748 9 view .LVU756
 2459 0048 0544     		add	r5, r5, r0
 2460 004a EDB2     		uxtb	r5, r5
 2461              	.LVL294:
 749:Drivers/u8g2_csrc/u8g2_font.c ****   }
 2462              		.loc 1 749 7 is_stmt 1 view .LVU757
 2463 004c E9E7     		b	.L113
 2464              		.cfi_endproc
 2465              	.LFE21:
 2467              		.section	.text.u8g2_draw_string,"ax",%progbits
 2468              		.align	1
 2469              		.syntax unified
ARM GAS  C:\Users\25339\AppData\Local\Temp\ccNjsSLI.s 			page 75


 2470              		.thumb
 2471              		.thumb_func
 2472              		.fpu softvfp
 2474              	u8g2_draw_string:
 2475              	.LVL295:
 2476              	.LFB22:
 759:Drivers/u8g2_csrc/u8g2_font.c ****   uint16_t e;
 2477              		.loc 1 759 1 view -0
 2478              		.cfi_startproc
 2479              		@ args = 0, pretend = 0, frame = 0
 2480              		@ frame_needed = 0, uses_anonymous_args = 0
 759:Drivers/u8g2_csrc/u8g2_font.c ****   uint16_t e;
 2481              		.loc 1 759 1 is_stmt 0 view .LVU759
 2482 0000 2DE9F041 		push	{r4, r5, r6, r7, r8, lr}
 2483              	.LCFI25:
 2484              		.cfi_def_cfa_offset 24
 2485              		.cfi_offset 4, -24
 2486              		.cfi_offset 5, -20
 2487              		.cfi_offset 6, -16
 2488              		.cfi_offset 7, -12
 2489              		.cfi_offset 8, -8
 2490              		.cfi_offset 14, -4
 2491 0004 0446     		mov	r4, r0
 2492 0006 0F46     		mov	r7, r1
 2493 0008 1646     		mov	r6, r2
 2494 000a 1D46     		mov	r5, r3
 760:Drivers/u8g2_csrc/u8g2_font.c ****   u8g2_uint_t delta, sum;
 2495              		.loc 1 760 3 is_stmt 1 view .LVU760
 761:Drivers/u8g2_csrc/u8g2_font.c ****   u8x8_utf8_init(u8g2_GetU8x8(u8g2));
 2496              		.loc 1 761 3 view .LVU761
 762:Drivers/u8g2_csrc/u8g2_font.c ****   sum = 0;
 2497              		.loc 1 762 3 view .LVU762
 2498 000c FFF7FEFF 		bl	u8x8_utf8_init
 2499              	.LVL296:
 763:Drivers/u8g2_csrc/u8g2_font.c ****   for(;;)
 2500              		.loc 1 763 3 view .LVU763
 763:Drivers/u8g2_csrc/u8g2_font.c ****   for(;;)
 2501              		.loc 1 763 7 is_stmt 0 view .LVU764
 2502 0010 4FF00008 		mov	r8, #0
 2503 0014 04E0     		b	.L121
 2504              	.LVL297:
 2505              	.L129:
 778:Drivers/u8g2_csrc/u8g2_font.c **** 	  break;
 2506              		.loc 1 778 4 is_stmt 1 view .LVU765
 778:Drivers/u8g2_csrc/u8g2_font.c **** 	  break;
 2507              		.loc 1 778 6 is_stmt 0 view .LVU766
 2508 0016 0744     		add	r7, r7, r0
 2509              	.LVL298:
 778:Drivers/u8g2_csrc/u8g2_font.c **** 	  break;
 2510              		.loc 1 778 6 view .LVU767
 2511 0018 FFB2     		uxtb	r7, r7
 2512              	.LVL299:
 779:Drivers/u8g2_csrc/u8g2_font.c **** 	case 1:
 2513              		.loc 1 779 4 is_stmt 1 view .LVU768
 2514              	.L124:
 794:Drivers/u8g2_csrc/u8g2_font.c ****     }
 2515              		.loc 1 794 7 view .LVU769
ARM GAS  C:\Users\25339\AppData\Local\Temp\ccNjsSLI.s 			page 76


 794:Drivers/u8g2_csrc/u8g2_font.c ****     }
 2516              		.loc 1 794 11 is_stmt 0 view .LVU770
 2517 001a 4044     		add	r0, r0, r8
 2518              	.LVL300:
 794:Drivers/u8g2_csrc/u8g2_font.c ****     }
 2519              		.loc 1 794 11 view .LVU771
 2520 001c 5FFA80F8 		uxtb	r8, r0
 2521              	.LVL301:
 2522              	.L121:
 764:Drivers/u8g2_csrc/u8g2_font.c ****   {
 2523              		.loc 1 764 3 is_stmt 1 view .LVU772
 766:Drivers/u8g2_csrc/u8g2_font.c ****     if ( e == 0x0ffff )
 2524              		.loc 1 766 5 view .LVU773
 766:Drivers/u8g2_csrc/u8g2_font.c ****     if ( e == 0x0ffff )
 2525              		.loc 1 766 19 is_stmt 0 view .LVU774
 2526 0020 6368     		ldr	r3, [r4, #4]
 766:Drivers/u8g2_csrc/u8g2_font.c ****     if ( e == 0x0ffff )
 2527              		.loc 1 766 9 view .LVU775
 2528 0022 2978     		ldrb	r1, [r5]	@ zero_extendqisi2
 2529 0024 2046     		mov	r0, r4
 2530 0026 9847     		blx	r3
 2531              	.LVL302:
 767:Drivers/u8g2_csrc/u8g2_font.c ****       break;
 2532              		.loc 1 767 5 is_stmt 1 view .LVU776
 767:Drivers/u8g2_csrc/u8g2_font.c ****       break;
 2533              		.loc 1 767 8 is_stmt 0 view .LVU777
 2534 0028 4FF6FF72 		movw	r2, #65535
 2535 002c 9042     		cmp	r0, r2
 2536 002e 22D0     		beq	.L122
 769:Drivers/u8g2_csrc/u8g2_font.c ****     if ( e != 0x0fffe )
 2537              		.loc 1 769 5 is_stmt 1 view .LVU778
 769:Drivers/u8g2_csrc/u8g2_font.c ****     if ( e != 0x0fffe )
 2538              		.loc 1 769 8 is_stmt 0 view .LVU779
 2539 0030 0135     		adds	r5, r5, #1
 2540              	.LVL303:
 770:Drivers/u8g2_csrc/u8g2_font.c ****     {
 2541              		.loc 1 770 5 is_stmt 1 view .LVU780
 770:Drivers/u8g2_csrc/u8g2_font.c ****     {
 2542              		.loc 1 770 8 is_stmt 0 view .LVU781
 2543 0032 4FF6FE72 		movw	r2, #65534
 2544 0036 9042     		cmp	r0, r2
 2545 0038 F2D0     		beq	.L121
 772:Drivers/u8g2_csrc/u8g2_font.c ****     
 2546              		.loc 1 772 7 is_stmt 1 view .LVU782
 772:Drivers/u8g2_csrc/u8g2_font.c ****     
 2547              		.loc 1 772 15 is_stmt 0 view .LVU783
 2548 003a 0346     		mov	r3, r0
 2549 003c 3246     		mov	r2, r6
 2550 003e 3946     		mov	r1, r7
 2551 0040 2046     		mov	r0, r4
 2552              	.LVL304:
 772:Drivers/u8g2_csrc/u8g2_font.c ****     
 2553              		.loc 1 772 15 view .LVU784
 2554 0042 FFF7FEFF 		bl	u8g2_DrawGlyph
 2555              	.LVL305:
 775:Drivers/u8g2_csrc/u8g2_font.c ****       {
 2556              		.loc 1 775 7 is_stmt 1 view .LVU785
ARM GAS  C:\Users\25339\AppData\Local\Temp\ccNjsSLI.s 			page 77


 775:Drivers/u8g2_csrc/u8g2_font.c ****       {
 2557              		.loc 1 775 31 is_stmt 0 view .LVU786
 2558 0046 94F86630 		ldrb	r3, [r4, #102]	@ zero_extendqisi2
 2559 004a 032B     		cmp	r3, #3
 2560 004c E5D8     		bhi	.L124
 2561 004e 01A2     		adr	r2, .L126
 2562 0050 52F823F0 		ldr	pc, [r2, r3, lsl #2]
 2563              		.p2align 2
 2564              	.L126:
 2565 0054 17000000 		.word	.L129+1
 2566 0058 65000000 		.word	.L128+1
 2567 005c 6B000000 		.word	.L127+1
 2568 0060 71000000 		.word	.L125+1
 2569              		.p2align 1
 2570              	.L128:
 781:Drivers/u8g2_csrc/u8g2_font.c **** 	  break;
 2571              		.loc 1 781 4 is_stmt 1 view .LVU787
 781:Drivers/u8g2_csrc/u8g2_font.c **** 	  break;
 2572              		.loc 1 781 6 is_stmt 0 view .LVU788
 2573 0064 0644     		add	r6, r6, r0
 2574              	.LVL306:
 781:Drivers/u8g2_csrc/u8g2_font.c **** 	  break;
 2575              		.loc 1 781 6 view .LVU789
 2576 0066 F6B2     		uxtb	r6, r6
 2577              	.LVL307:
 782:Drivers/u8g2_csrc/u8g2_font.c **** 	case 2:
 2578              		.loc 1 782 4 is_stmt 1 view .LVU790
 2579 0068 D7E7     		b	.L124
 2580              	.L127:
 784:Drivers/u8g2_csrc/u8g2_font.c **** 	  break;
 2581              		.loc 1 784 4 view .LVU791
 784:Drivers/u8g2_csrc/u8g2_font.c **** 	  break;
 2582              		.loc 1 784 6 is_stmt 0 view .LVU792
 2583 006a 3F1A     		subs	r7, r7, r0
 2584              	.LVL308:
 784:Drivers/u8g2_csrc/u8g2_font.c **** 	  break;
 2585              		.loc 1 784 6 view .LVU793
 2586 006c FFB2     		uxtb	r7, r7
 2587              	.LVL309:
 785:Drivers/u8g2_csrc/u8g2_font.c **** 	case 3:
 2588              		.loc 1 785 4 is_stmt 1 view .LVU794
 2589 006e D4E7     		b	.L124
 2590              	.L125:
 787:Drivers/u8g2_csrc/u8g2_font.c **** 	  break;
 2591              		.loc 1 787 4 view .LVU795
 787:Drivers/u8g2_csrc/u8g2_font.c **** 	  break;
 2592              		.loc 1 787 6 is_stmt 0 view .LVU796
 2593 0070 361A     		subs	r6, r6, r0
 2594              	.LVL310:
 787:Drivers/u8g2_csrc/u8g2_font.c **** 	  break;
 2595              		.loc 1 787 6 view .LVU797
 2596 0072 F6B2     		uxtb	r6, r6
 2597              	.LVL311:
 788:Drivers/u8g2_csrc/u8g2_font.c ****       }
 2598              		.loc 1 788 4 is_stmt 1 view .LVU798
 2599 0074 D1E7     		b	.L124
 2600              	.LVL312:
ARM GAS  C:\Users\25339\AppData\Local\Temp\ccNjsSLI.s 			page 78


 2601              	.L122:
 797:Drivers/u8g2_csrc/u8g2_font.c **** }
 2602              		.loc 1 797 3 view .LVU799
 798:Drivers/u8g2_csrc/u8g2_font.c **** 
 2603              		.loc 1 798 1 is_stmt 0 view .LVU800
 2604 0076 4046     		mov	r0, r8
 2605              	.LVL313:
 798:Drivers/u8g2_csrc/u8g2_font.c **** 
 2606              		.loc 1 798 1 view .LVU801
 2607 0078 BDE8F081 		pop	{r4, r5, r6, r7, r8, pc}
 798:Drivers/u8g2_csrc/u8g2_font.c **** 
 2608              		.loc 1 798 1 view .LVU802
 2609              		.cfi_endproc
 2610              	.LFE22:
 2612              		.section	.text.u8g2_DrawStr,"ax",%progbits
 2613              		.align	1
 2614              		.global	u8g2_DrawStr
 2615              		.syntax unified
 2616              		.thumb
 2617              		.thumb_func
 2618              		.fpu softvfp
 2620              	u8g2_DrawStr:
 2621              	.LVL314:
 2622              	.LFB23:
 801:Drivers/u8g2_csrc/u8g2_font.c ****   u8g2->u8x8.next_cb = u8x8_ascii_next;
 2623              		.loc 1 801 1 is_stmt 1 view -0
 2624              		.cfi_startproc
 2625              		@ args = 0, pretend = 0, frame = 0
 2626              		@ frame_needed = 0, uses_anonymous_args = 0
 801:Drivers/u8g2_csrc/u8g2_font.c ****   u8g2->u8x8.next_cb = u8x8_ascii_next;
 2627              		.loc 1 801 1 is_stmt 0 view .LVU804
 2628 0000 10B5     		push	{r4, lr}
 2629              	.LCFI26:
 2630              		.cfi_def_cfa_offset 8
 2631              		.cfi_offset 4, -8
 2632              		.cfi_offset 14, -4
 802:Drivers/u8g2_csrc/u8g2_font.c ****   return u8g2_draw_string(u8g2, x, y, str);
 2633              		.loc 1 802 3 is_stmt 1 view .LVU805
 802:Drivers/u8g2_csrc/u8g2_font.c ****   return u8g2_draw_string(u8g2, x, y, str);
 2634              		.loc 1 802 22 is_stmt 0 view .LVU806
 2635 0002 024C     		ldr	r4, .L133
 2636 0004 4460     		str	r4, [r0, #4]
 803:Drivers/u8g2_csrc/u8g2_font.c **** }
 2637              		.loc 1 803 3 is_stmt 1 view .LVU807
 803:Drivers/u8g2_csrc/u8g2_font.c **** }
 2638              		.loc 1 803 10 is_stmt 0 view .LVU808
 2639 0006 FFF7FEFF 		bl	u8g2_draw_string
 2640              	.LVL315:
 804:Drivers/u8g2_csrc/u8g2_font.c **** 
 2641              		.loc 1 804 1 view .LVU809
 2642 000a 10BD     		pop	{r4, pc}
 2643              	.L134:
 2644              		.align	2
 2645              	.L133:
 2646 000c 00000000 		.word	u8x8_ascii_next
 2647              		.cfi_endproc
 2648              	.LFE23:
ARM GAS  C:\Users\25339\AppData\Local\Temp\ccNjsSLI.s 			page 79


 2650              		.section	.text.u8g2_DrawUTF8,"ax",%progbits
 2651              		.align	1
 2652              		.global	u8g2_DrawUTF8
 2653              		.syntax unified
 2654              		.thumb
 2655              		.thumb_func
 2656              		.fpu softvfp
 2658              	u8g2_DrawUTF8:
 2659              	.LVL316:
 2660              	.LFB24:
 817:Drivers/u8g2_csrc/u8g2_font.c ****   u8g2->u8x8.next_cb = u8x8_utf8_next;
 2661              		.loc 1 817 1 is_stmt 1 view -0
 2662              		.cfi_startproc
 2663              		@ args = 0, pretend = 0, frame = 0
 2664              		@ frame_needed = 0, uses_anonymous_args = 0
 817:Drivers/u8g2_csrc/u8g2_font.c ****   u8g2->u8x8.next_cb = u8x8_utf8_next;
 2665              		.loc 1 817 1 is_stmt 0 view .LVU811
 2666 0000 10B5     		push	{r4, lr}
 2667              	.LCFI27:
 2668              		.cfi_def_cfa_offset 8
 2669              		.cfi_offset 4, -8
 2670              		.cfi_offset 14, -4
 818:Drivers/u8g2_csrc/u8g2_font.c ****   return u8g2_draw_string(u8g2, x, y, str);
 2671              		.loc 1 818 3 is_stmt 1 view .LVU812
 818:Drivers/u8g2_csrc/u8g2_font.c ****   return u8g2_draw_string(u8g2, x, y, str);
 2672              		.loc 1 818 22 is_stmt 0 view .LVU813
 2673 0002 024C     		ldr	r4, .L137
 2674 0004 4460     		str	r4, [r0, #4]
 819:Drivers/u8g2_csrc/u8g2_font.c **** }
 2675              		.loc 1 819 3 is_stmt 1 view .LVU814
 819:Drivers/u8g2_csrc/u8g2_font.c **** }
 2676              		.loc 1 819 10 is_stmt 0 view .LVU815
 2677 0006 FFF7FEFF 		bl	u8g2_draw_string
 2678              	.LVL317:
 820:Drivers/u8g2_csrc/u8g2_font.c **** 
 2679              		.loc 1 820 1 view .LVU816
 2680 000a 10BD     		pop	{r4, pc}
 2681              	.L138:
 2682              		.align	2
 2683              	.L137:
 2684 000c 00000000 		.word	u8x8_utf8_next
 2685              		.cfi_endproc
 2686              	.LFE24:
 2688              		.section	.text.u8g2_DrawExtendedUTF8,"ax",%progbits
 2689              		.align	1
 2690              		.global	u8g2_DrawExtendedUTF8
 2691              		.syntax unified
 2692              		.thumb
 2693              		.thumb_func
 2694              		.fpu softvfp
 2696              	u8g2_DrawExtendedUTF8:
 2697              	.LVL318:
 2698              	.LFB25:
 825:Drivers/u8g2_csrc/u8g2_font.c ****   u8g2->u8x8.next_cb = u8x8_utf8_next;
 2699              		.loc 1 825 1 is_stmt 1 view -0
 2700              		.cfi_startproc
 2701              		@ args = 8, pretend = 0, frame = 8
ARM GAS  C:\Users\25339\AppData\Local\Temp\ccNjsSLI.s 			page 80


 2702              		@ frame_needed = 0, uses_anonymous_args = 0
 825:Drivers/u8g2_csrc/u8g2_font.c ****   u8g2->u8x8.next_cb = u8x8_utf8_next;
 2703              		.loc 1 825 1 is_stmt 0 view .LVU818
 2704 0000 2DE9F04F 		push	{r4, r5, r6, r7, r8, r9, r10, fp, lr}
 2705              	.LCFI28:
 2706              		.cfi_def_cfa_offset 36
 2707              		.cfi_offset 4, -36
 2708              		.cfi_offset 5, -32
 2709              		.cfi_offset 6, -28
 2710              		.cfi_offset 7, -24
 2711              		.cfi_offset 8, -20
 2712              		.cfi_offset 9, -16
 2713              		.cfi_offset 10, -12
 2714              		.cfi_offset 11, -8
 2715              		.cfi_offset 14, -4
 2716 0004 83B0     		sub	sp, sp, #12
 2717              	.LCFI29:
 2718              		.cfi_def_cfa_offset 48
 2719 0006 0746     		mov	r7, r0
 2720 0008 0D46     		mov	r5, r1
 2721 000a 0192     		str	r2, [sp, #4]
 2722 000c 0093     		str	r3, [sp]
 2723 000e DDF834A0 		ldr	r10, [sp, #52]
 826:Drivers/u8g2_csrc/u8g2_font.c ****   uint16_t e_prev = 0x0ffff;
 2724              		.loc 1 826 3 is_stmt 1 view .LVU819
 826:Drivers/u8g2_csrc/u8g2_font.c ****   uint16_t e_prev = 0x0ffff;
 2725              		.loc 1 826 22 is_stmt 0 view .LVU820
 2726 0012 284B     		ldr	r3, .L147
 2727              	.LVL319:
 826:Drivers/u8g2_csrc/u8g2_font.c ****   uint16_t e_prev = 0x0ffff;
 2728              		.loc 1 826 22 view .LVU821
 2729 0014 4360     		str	r3, [r0, #4]
 827:Drivers/u8g2_csrc/u8g2_font.c ****   uint16_t e;
 2730              		.loc 1 827 3 is_stmt 1 view .LVU822
 2731              	.LVL320:
 828:Drivers/u8g2_csrc/u8g2_font.c ****   u8g2_uint_t delta, sum, k;
 2732              		.loc 1 828 3 view .LVU823
 829:Drivers/u8g2_csrc/u8g2_font.c ****   u8x8_utf8_init(u8g2_GetU8x8(u8g2));
 2733              		.loc 1 829 3 view .LVU824
 830:Drivers/u8g2_csrc/u8g2_font.c ****   sum = 0;
 2734              		.loc 1 830 3 view .LVU825
 2735 0016 FFF7FEFF 		bl	u8x8_utf8_init
 2736              	.LVL321:
 831:Drivers/u8g2_csrc/u8g2_font.c ****   for(;;)
 2737              		.loc 1 831 3 view .LVU826
 831:Drivers/u8g2_csrc/u8g2_font.c ****   for(;;)
 2738              		.loc 1 831 7 is_stmt 0 view .LVU827
 2739 001a 4FF00008 		mov	r8, #0
 827:Drivers/u8g2_csrc/u8g2_font.c ****   uint16_t e;
 2740              		.loc 1 827 12 view .LVU828
 2741 001e 4FF6FF79 		movw	r9, #65535
 2742 0022 0EE0     		b	.L140
 2743              	.LVL322:
 2744              	.L143:
 850:Drivers/u8g2_csrc/u8g2_font.c **** 	delta -= k;
 2745              		.loc 1 850 9 is_stmt 1 view .LVU829
 850:Drivers/u8g2_csrc/u8g2_font.c **** 	delta -= k;
ARM GAS  C:\Users\25339\AppData\Local\Temp\ccNjsSLI.s 			page 81


 2746              		.loc 1 850 13 is_stmt 0 view .LVU830
 2747 0024 2346     		mov	r3, r4
 2748 0026 4A46     		mov	r2, r9
 2749 0028 0C99     		ldr	r1, [sp, #48]
 2750 002a 3846     		mov	r0, r7
 2751 002c FFF7FEFF 		bl	u8g2_GetKerning
 2752              	.LVL323:
 2753 0030 8346     		mov	fp, r0
 2754              	.LVL324:
 851:Drivers/u8g2_csrc/u8g2_font.c ****       }
 2755              		.loc 1 851 2 is_stmt 1 view .LVU831
 851:Drivers/u8g2_csrc/u8g2_font.c ****       }
 2756              		.loc 1 851 8 is_stmt 0 view .LVU832
 2757 0032 361A     		subs	r6, r6, r0
 2758              	.LVL325:
 851:Drivers/u8g2_csrc/u8g2_font.c ****       }
 2759              		.loc 1 851 8 view .LVU833
 2760 0034 5FFA86F9 		uxtb	r9, r6
 2761              	.LVL326:
 851:Drivers/u8g2_csrc/u8g2_font.c ****       }
 2762              		.loc 1 851 8 view .LVU834
 2763 0038 29E0     		b	.L144
 2764              	.LVL327:
 2765              	.L145:
 865:Drivers/u8g2_csrc/u8g2_font.c ****     }
 2766              		.loc 1 865 7 is_stmt 1 view .LVU835
 865:Drivers/u8g2_csrc/u8g2_font.c ****     }
 2767              		.loc 1 865 11 is_stmt 0 view .LVU836
 2768 003a C844     		add	r8, r8, r9
 2769              	.LVL328:
 865:Drivers/u8g2_csrc/u8g2_font.c ****     }
 2770              		.loc 1 865 11 view .LVU837
 2771 003c 5FFA88F8 		uxtb	r8, r8
 2772              	.LVL329:
 853:Drivers/u8g2_csrc/u8g2_font.c **** 
 2773              		.loc 1 853 14 view .LVU838
 2774 0040 A146     		mov	r9, r4
 2775              	.LVL330:
 2776              	.L140:
 832:Drivers/u8g2_csrc/u8g2_font.c ****   {
 2777              		.loc 1 832 3 is_stmt 1 view .LVU839
 834:Drivers/u8g2_csrc/u8g2_font.c ****     if ( e == 0x0ffff )
 2778              		.loc 1 834 5 view .LVU840
 834:Drivers/u8g2_csrc/u8g2_font.c ****     if ( e == 0x0ffff )
 2779              		.loc 1 834 19 is_stmt 0 view .LVU841
 2780 0042 7B68     		ldr	r3, [r7, #4]
 834:Drivers/u8g2_csrc/u8g2_font.c ****     if ( e == 0x0ffff )
 2781              		.loc 1 834 9 view .LVU842
 2782 0044 9AF80010 		ldrb	r1, [r10]	@ zero_extendqisi2
 2783 0048 3846     		mov	r0, r7
 2784 004a 9847     		blx	r3
 2785              	.LVL331:
 2786 004c 0446     		mov	r4, r0
 2787              	.LVL332:
 835:Drivers/u8g2_csrc/u8g2_font.c ****       break;
 2788              		.loc 1 835 5 is_stmt 1 view .LVU843
 835:Drivers/u8g2_csrc/u8g2_font.c ****       break;
ARM GAS  C:\Users\25339\AppData\Local\Temp\ccNjsSLI.s 			page 82


 2789              		.loc 1 835 8 is_stmt 0 view .LVU844
 2790 004e 4FF6FF73 		movw	r3, #65535
 2791 0052 9842     		cmp	r0, r3
 2792 0054 2AD0     		beq	.L141
 837:Drivers/u8g2_csrc/u8g2_font.c ****     if ( e != 0x0fffe )
 2793              		.loc 1 837 5 is_stmt 1 view .LVU845
 837:Drivers/u8g2_csrc/u8g2_font.c ****     if ( e != 0x0fffe )
 2794              		.loc 1 837 8 is_stmt 0 view .LVU846
 2795 0056 0AF1010A 		add	r10, r10, #1
 2796              	.LVL333:
 838:Drivers/u8g2_csrc/u8g2_font.c ****     {
 2797              		.loc 1 838 5 is_stmt 1 view .LVU847
 838:Drivers/u8g2_csrc/u8g2_font.c ****     {
 2798              		.loc 1 838 8 is_stmt 0 view .LVU848
 2799 005a 4FF6FE73 		movw	r3, #65534
 2800 005e 9842     		cmp	r0, r3
 2801 0060 EFD0     		beq	.L140
 840:Drivers/u8g2_csrc/u8g2_font.c **** 	    
 2802              		.loc 1 840 7 is_stmt 1 view .LVU849
 840:Drivers/u8g2_csrc/u8g2_font.c **** 	    
 2803              		.loc 1 840 15 is_stmt 0 view .LVU850
 2804 0062 0146     		mov	r1, r0
 2805 0064 3846     		mov	r0, r7
 2806              	.LVL334:
 840:Drivers/u8g2_csrc/u8g2_font.c **** 	    
 2807              		.loc 1 840 15 view .LVU851
 2808 0066 FFF7FEFF 		bl	u8g2_GetGlyphWidth
 2809              	.LVL335:
 840:Drivers/u8g2_csrc/u8g2_font.c **** 	    
 2810              		.loc 1 840 13 view .LVU852
 2811 006a C6B2     		uxtb	r6, r0
 2812              	.LVL336:
 842:Drivers/u8g2_csrc/u8g2_font.c ****       {
 2813              		.loc 1 842 7 is_stmt 1 view .LVU853
 842:Drivers/u8g2_csrc/u8g2_font.c ****       {
 2814              		.loc 1 842 10 is_stmt 0 view .LVU854
 2815 006c 009B     		ldr	r3, [sp]
 2816 006e 002B     		cmp	r3, #0
 2817 0070 D8D0     		beq	.L143
 844:Drivers/u8g2_csrc/u8g2_font.c **** 	delta -= k;
 2818              		.loc 1 844 9 is_stmt 1 view .LVU855
 844:Drivers/u8g2_csrc/u8g2_font.c **** 	delta -= k;
 2819              		.loc 1 844 13 is_stmt 0 view .LVU856
 2820 0072 4B46     		mov	r3, r9
 2821 0074 2246     		mov	r2, r4
 2822 0076 0C99     		ldr	r1, [sp, #48]
 2823 0078 3846     		mov	r0, r7
 2824 007a FFF7FEFF 		bl	u8g2_GetKerning
 2825              	.LVL337:
 2826 007e 8346     		mov	fp, r0
 2827              	.LVL338:
 845:Drivers/u8g2_csrc/u8g2_font.c **** 	x -= delta;
 2828              		.loc 1 845 2 is_stmt 1 view .LVU857
 845:Drivers/u8g2_csrc/u8g2_font.c **** 	x -= delta;
 2829              		.loc 1 845 8 is_stmt 0 view .LVU858
 2830 0080 A6EB0009 		sub	r9, r6, r0
 2831              	.LVL339:
ARM GAS  C:\Users\25339\AppData\Local\Temp\ccNjsSLI.s 			page 83


 845:Drivers/u8g2_csrc/u8g2_font.c **** 	x -= delta;
 2832              		.loc 1 845 8 view .LVU859
 2833 0084 5FFA89F9 		uxtb	r9, r9
 2834              	.LVL340:
 846:Drivers/u8g2_csrc/u8g2_font.c ****       }
 2835              		.loc 1 846 2 is_stmt 1 view .LVU860
 846:Drivers/u8g2_csrc/u8g2_font.c ****       }
 2836              		.loc 1 846 4 is_stmt 0 view .LVU861
 2837 0088 861B     		subs	r6, r0, r6
 2838 008a 3544     		add	r5, r5, r6
 2839              	.LVL341:
 846:Drivers/u8g2_csrc/u8g2_font.c ****       }
 2840              		.loc 1 846 4 view .LVU862
 2841 008c EDB2     		uxtb	r5, r5
 2842              	.LVL342:
 2843              	.L144:
 853:Drivers/u8g2_csrc/u8g2_font.c **** 
 2844              		.loc 1 853 7 is_stmt 1 view .LVU863
 855:Drivers/u8g2_csrc/u8g2_font.c ****       if ( to_left )
 2845              		.loc 1 855 7 view .LVU864
 2846 008e 2346     		mov	r3, r4
 2847 0090 019A     		ldr	r2, [sp, #4]
 2848 0092 2946     		mov	r1, r5
 2849 0094 3846     		mov	r0, r7
 2850 0096 FFF7FEFF 		bl	u8g2_DrawGlyph
 2851              	.LVL343:
 856:Drivers/u8g2_csrc/u8g2_font.c ****       {
 2852              		.loc 1 856 7 view .LVU865
 856:Drivers/u8g2_csrc/u8g2_font.c ****       {
